L251 LINKER/LOCATER V4.66.93.0                                                          07/19/2023  21:09:12  PAGE 1


L251 LINKER/LOCATER V4.66.93.0, INVOKED BY:
D:\C251\C251\BIN\L251.EXE .\Out_File\board.obj, .\Out_File\common.obj, .\Out_File\zf_adc.obj, .\Out_File\zf_delay.obj, .
>> \Out_File\zf_eeprom.obj, .\Out_File\zf_exti.obj, .\Out_File\zf_gpio.obj, .\Out_File\zf_nvic.obj, .\Out_File\zf_pwm.ob
>> j, .\Out_File\zf_spi.obj, .\Out_File\zf_tim.obj, .\Out_File\zf_uart.obj, .\Out_File\zf_fifo.obj, .\Out_File\SEEKFREE_
>> 18TFT.obj, .\Out_File\SEEKFREE_BLUETOOTH_CH9141.obj, ..\..\Libraries\seekfree_peripheral\SEEKFREE_CONFIG.LIB, .\Out_F
>> ile\SEEKFREE_DL1A.obj, .\Out_File\SEEKFREE_FONT.obj, .\Out_File\SEEKFREE_ICM20602.obj, .\Out_File\SEEKFREE_IMU660RA.o
>> bj, .\Out_File\SEEKFREE_IMU963RA.obj, .\Out_File\SEEKFREE_IPS114_SPI.obj, .\Out_File\SEEKFREE_MPU6050.obj, .\Out_File
>> \SEEKFREE_OLED.obj, .\Out_File\SEEKFREE_PRINTF.obj, .\Out_File\SEEKFREE_VIRSCO.obj, .\Out_File\SEEKFREE_WIRELESS.obj,
>>  .\Out_File\SEEKFREE_WIRELESS_CH573.obj, .\Out_File\SEEKFREE_IPS200_SPI.obj, .\Out_File\isr.obj, .\Out_File\main.obj,
>>  .\Out_File\motor.obj, .\Out_File\My_ADC.obj, .\Out_File\encoder.obj, .\Out_File\control.obj, .\Out_File\tof.obj, .\O
>> ut_File\imu660.obj TO .\Out_File\SEEKFREE PRINT (.\Out_File\SEEKFREE.map) CASE DISABLEWARNING (15, 16, 57) REMOVEUNUS
>> ED CLASSES (EDATA (0X0-0XFFF), HDATA (0X0-0XFFF))


CPU MODE:     251 SOURCE MODE
INTR FRAME:   2 BYTES SAVED ON INTERRUPT
MEMORY MODEL: XSMALL WITH FLOATING POINT ARITHMETIC


INPUT MODULES INCLUDED:
  .\Out_File\board.obj (board)
         COMMENT TYPE 0: C251 V5.60.0
  .\Out_File\common.obj (common)
         COMMENT TYPE 0: C251 V5.60.0
  .\Out_File\zf_adc.obj (zf_adc)
         COMMENT TYPE 0: C251 V5.60.0
  .\Out_File\zf_delay.obj (zf_delay)
         COMMENT TYPE 0: C251 V5.60.0
  .\Out_File\zf_eeprom.obj (zf_eeprom)
         COMMENT TYPE 0: C251 V5.60.0
  .\Out_File\zf_exti.obj (zf_exti)
         COMMENT TYPE 0: C251 V5.60.0
  .\Out_File\zf_gpio.obj (zf_gpio)
         COMMENT TYPE 0: C251 V5.60.0
  .\Out_File\zf_nvic.obj (zf_nvic)
         COMMENT TYPE 0: C251 V5.60.0
  .\Out_File\zf_pwm.obj (zf_pwm)
         COMMENT TYPE 0: C251 V5.60.0
  .\Out_File\zf_spi.obj (zf_spi)
         COMMENT TYPE 0: C251 V5.60.0
  .\Out_File\zf_tim.obj (zf_tim)
         COMMENT TYPE 0: C251 V5.60.0
  .\Out_File\zf_uart.obj (zf_uart)
         COMMENT TYPE 0: C251 V5.60.0
  .\Out_File\zf_fifo.obj (zf_fifo)
         COMMENT TYPE 0: C251 V5.60.0
  .\Out_File\SEEKFREE_18TFT.obj (SEEKFREE_18TFT)
         COMMENT TYPE 0: C251 V5.60.0
  .\Out_File\SEEKFREE_BLUETOOTH_CH9141.obj (SEEKFREE_BLUETOOTH_CH9141)
         COMMENT TYPE 0: C251 V5.60.0
  .\Out_File\SEEKFREE_DL1A.obj (SEEKFREE_DL1A)
         COMMENT TYPE 0: C251 V5.60.0
  .\Out_File\SEEKFREE_FONT.obj (SEEKFREE_FONT)
         COMMENT TYPE 0: C251 V5.60.0
  .\Out_File\SEEKFREE_ICM20602.obj (SEEKFREE_ICM20602)
         COMMENT TYPE 0: C251 V5.60.0
  .\Out_File\SEEKFREE_IMU660RA.obj (SEEKFREE_IMU660RA)
         COMMENT TYPE 0: C251 V5.60.0
  .\Out_File\SEEKFREE_IMU963RA.obj (SEEKFREE_IMU963RA)
         COMMENT TYPE 0: C251 V5.60.0
  .\Out_File\SEEKFREE_IPS114_SPI.obj (SEEKFREE_IPS114_SPI)
         COMMENT TYPE 0: C251 V5.60.0
  .\Out_File\SEEKFREE_MPU6050.obj (SEEKFREE_MPU6050)
         COMMENT TYPE 0: C251 V5.60.0
  .\Out_File\SEEKFREE_OLED.obj (SEEKFREE_OLED)
         COMMENT TYPE 0: C251 V5.60.0
L251 LINKER/LOCATER V4.66.93.0                                                        07/19/2023  21:09:12  PAGE 2


  .\Out_File\SEEKFREE_PRINTF.obj (SEEKFREE_PRINTF)
         COMMENT TYPE 0: C251 V5.60.0
  .\Out_File\SEEKFREE_VIRSCO.obj (SEEKFREE_VIRSCO)
         COMMENT TYPE 0: C251 V5.60.0
  .\Out_File\SEEKFREE_WIRELESS.obj (SEEKFREE_WIRELESS)
         COMMENT TYPE 0: C251 V5.60.0
  .\Out_File\SEEKFREE_WIRELESS_CH573.obj (SEEKFREE_WIRELESS_CH573)
         COMMENT TYPE 0: C251 V5.60.0
  .\Out_File\SEEKFREE_IPS200_SPI.obj (SEEKFREE_IPS200_SPI)
         COMMENT TYPE 0: C251 V5.60.0
  .\Out_File\isr.obj (isr)
         COMMENT TYPE 0: C251 V5.60.0
  .\Out_File\main.obj (main)
         COMMENT TYPE 0: C251 V5.60.0
  .\Out_File\motor.obj (motor)
         COMMENT TYPE 0: C251 V5.60.0
  .\Out_File\My_ADC.obj (My_ADC)
         COMMENT TYPE 0: C251 V5.60.0
  .\Out_File\encoder.obj (encoder)
         COMMENT TYPE 0: C251 V5.60.0
  .\Out_File\control.obj (control)
         COMMENT TYPE 0: C251 V5.60.0
  .\Out_File\tof.obj (tof)
         COMMENT TYPE 0: C251 V5.60.0
  .\Out_File\imu660.obj (imu660)
         COMMENT TYPE 0: C251 V5.60.0
  ..\..\Libraries\seekfree_peripheral\SEEKFREE_CONFIG.LIB (SEEKFREE_CONFIG)
         COMMENT TYPE 0: C251 V5.60.0
  D:\C251\C251\LIB\C2SFPXS.LIB (?C?FPADD)
         COMMENT TYPE 0: A251 V4.69.6.0
  D:\C251\C251\LIB\C2SFPXS.LIB (?C?FPMUL)
         COMMENT TYPE 0: A251 V4.69.6.0
  D:\C251\C251\LIB\C2SFPXS.LIB (?C?FPDIV)
         COMMENT TYPE 0: A251 V4.69.6.0
  D:\C251\C251\LIB\C2SFPXS.LIB (?C?FPCMP)
         COMMENT TYPE 0: A251 V4.69.6.0
  D:\C251\C251\LIB\C2SFPXS.LIB (?C?FPNEG)
         COMMENT TYPE 0: A251 V4.69.6.0
  D:\C251\C251\LIB\C2SFPXS.LIB (?C?FCAST)
         COMMENT TYPE 0: A251 V4.69.6.0
  D:\C251\C251\LIB\C2SFPXS.LIB (?C?CASTF)
         COMMENT TYPE 0: A251 V4.69.6.0
  D:\C251\C251\LIB\C2SFPXS.LIB (PRINTF)
         COMMENT TYPE 0: A251 V4.69.6.0
  D:\C251\C251\LIB\C2SFPXS.LIB (?C?FPGETOPN)
         COMMENT TYPE 0: A251 V4.69.6.0
  D:\C251\C251\LIB\C2SFPXS.LIB (?C?PRNFMT)
         COMMENT TYPE 0: A251 V4.69.6.0
  D:\C251\C251\LIB\C2SFPXS.LIB (?C?FPCONVERT)
         COMMENT TYPE 0: A251 V4.69.6.0
  D:\C251\C251\LIB\C2SFPXS.LIB (?C?FTNPWR)
         COMMENT TYPE 0: A251 V4.69.6.0
  D:\C251\C251\LIB\C2SXS.LIB (?C_START)
         COMMENT TYPE 0: A251 V4.69.6.0
  D:\C251\C251\LIB\C2SXS.LIB (?C?INITEDATA)
         COMMENT TYPE 0: A251 V4.69.6.0
  D:\C251\C251\LIB\C2SXS.LIB (?C?SIDIV)
         COMMENT TYPE 0: A251 V4.69.6.0
  D:\C251\C251\LIB\C2SXS.LIB (?C?LMUL)
         COMMENT TYPE 0: A251 V4.69.6.0
  D:\C251\C251\LIB\C2SXS.LIB (?C?LIMUL)
         COMMENT TYPE 0: A251 V4.69.6.0
  D:\C251\C251\LIB\C2SXS.LIB (?C?ULDIV)
         COMMENT TYPE 0: A251 V4.69.6.0
  D:\C251\C251\LIB\C2SXS.LIB (?C?SLDIV)
L251 LINKER/LOCATER V4.66.93.0                                                        07/19/2023  21:09:12  PAGE 3


         COMMENT TYPE 0: A251 V4.69.6.0
  D:\C251\C251\LIB\C2SXS.LIB (memcpy)
         COMMENT TYPE 0: C251 V5.58.7
  D:\C251\C251\LIB\C2SXS.LIB (memset)
         COMMENT TYPE 0: C251 V5.58.7
  D:\C251\C251\LIB\C2SXS.LIB (?C?INITEDATA_END)
         COMMENT TYPE 0: A251 V4.69.6.0


ACTIVE MEMORY CLASSES OF MODULE:  .\Out_File\SEEKFREE (board)

BASE        START       END         USED      MEMORY CLASS
==========================================================
000000H     000000H     000FFFH     000CE8H   EDATA
000000H     000000H     000FFFH               HDATA
FF0000H     FF0000H     FFFFFFH     008233H   CODE
000000H     FF0000H     FFFFFFH     00037CH   HCONST
FF0000H     FF0000H     FFFFFFH     000004H   CONST
000000H     000000H     00007FH     000008H   DATA


MEMORY MAP OF MODULE:  .\Out_File\SEEKFREE (board)


START     STOP      LENGTH    ALIGN  RELOC    MEMORY CLASS   SEGMENT NAME
=========================================================================
000000H   000007H   000008H   ---    AT..     DATA           "REG BANK 0"
000008H   0000E4H   0000DDH   BYTE   UNIT     EDATA          ?ED?CONTROL
0000E5H   000143H   00005FH   BYTE   UNIT     EDATA          ?ED?ZF_SPRINTF?SEEKFREE_PRINTF
000144H   000198H   000055H   BYTE   UNIT     EDATA          ?ED?SEEKFREE_BLUETOOTH_CH9141
000199H   0001EDH   000055H   BYTE   UNIT     EDATA          ?ED?SEEKFREE_WIRELESS
0001EEH   000242H   000055H   BYTE   UNIT     EDATA          ?ED?SEEKFREE_WIRELESS_CH573
000243H   000272H   000030H   BYTE   UNIT     EDATA          ?ED?LCD_SHOWFLOAT_SIMSPI?SEEKFREE_18TFT
000273H   0002A2H   000030H   BYTE   UNIT     EDATA          ?ED?LCD_SHOWFLOAT?SEEKFREE_18TFT
0002A3H   0002D2H   000030H   BYTE   UNIT     EDATA          ?ED?IPS114_SHOWFLOAT_SIMSPI?SEEKFREE_IPS114_SPI
0002D3H   000302H   000030H   BYTE   UNIT     EDATA          ?ED?IPS114_SHOWFLOAT?SEEKFREE_IPS114_SPI
000303H   000332H   000030H   BYTE   UNIT     EDATA          ?ED?OLED_PRINTF_FLOAT?SEEKFREE_OLED
000333H   000362H   000030H   BYTE   UNIT     EDATA          ?ED?OLED_PRINTF_FLOAT_SPI?SEEKFREE_OLED
000363H   000392H   000030H   BYTE   UNIT     EDATA          ?ED?IPS200_SHOWFLOAT_SIMSPI?SEEKFREE_IPS200_SPI
000393H   0003C2H   000030H   BYTE   UNIT     EDATA          ?ED?IPS200_SHOWFLOAT?SEEKFREE_IPS200_SPI
0003C3H   0003F1H   00002FH   BYTE   UNIT     EDATA          ?ED?DL1A_SET_MEASUREMENT_TIMING_BUDGET?SEEKFREE_DL1A
0003F2H   00041DH   00002CH   BYTE   UNIT     EDATA          ?ED?LCD_SHOWINT32_SIMSPI?SEEKFREE_18TFT
00041EH   000449H   00002CH   BYTE   UNIT     EDATA          ?ED?LCD_SHOWINT32?SEEKFREE_18TFT
00044AH   000475H   00002CH   BYTE   UNIT     EDATA          ?ED?IPS114_SHOWINT32_SIMSPI?SEEKFREE_IPS114_SPI
000476H   0004A1H   00002CH   BYTE   UNIT     EDATA          ?ED?IPS114_SHOWINT32?SEEKFREE_IPS114_SPI
0004A2H   0004CDH   00002CH   BYTE   UNIT     EDATA          ?ED?OLED_PRINTF_INT32?SEEKFREE_OLED
0004CEH   0004F9H   00002CH   BYTE   UNIT     EDATA          ?ED?OLED_PRINTF_INT32_SPI?SEEKFREE_OLED
0004FAH   000525H   00002CH   BYTE   UNIT     EDATA          ?ED?IPS200_SHOWINT32_SIMSPI?SEEKFREE_IPS200_SPI
000526H   000551H   00002CH   BYTE   UNIT     EDATA          ?ED?IPS200_SHOWINT32?SEEKFREE_IPS200_SPI
000552H   000570H   00001FH   BYTE   UNIT     EDATA          ?ED?DL1A_GET_MEASUREMENT_TIMING_BUDGET?SEEKFREE_DL1A
000571H   000585H   000015H   BYTE   UNIT     EDATA          ?ED?DL1A_INIT?SEEKFREE_DL1A
000586H   000599H   000014H   BYTE   UNIT     EDATA          ?ED?PWM_INIT?ZF_PWM
00059AH   0005ADH   000014H   BYTE   UNIT     EDATA          ?ED?PWM_FREQ?ZF_PWM
0005AEH   0005C1H   000014H   BYTE   UNIT     EDATA          ?ED?NUMBER_CONVERSION_ASCII?SEEKFREE_PRINTF
0005C2H   0005D4H   000013H   BYTE   UNIT     EDATA          ?ED?FIFO_READ_BUFFER?ZF_FIFO
0005D5H   0005E6H   000012H   BYTE   UNIT     EDATA          ?ED?SEEKFREE_IMU963RA
0005E7H   0005F8H   000012H   BYTE   UNIT     EDATA          ?ED?OLED_DIS_BMP?SEEKFREE_OLED
0005F9H   00060AH   000012H   BYTE   UNIT     EDATA          ?ED?OLED_DIS_BMP_SPI?SEEKFREE_OLED
00060BH   00061AH   000010H   BYTE   UNIT     EDATA          ?ED?FIFO_WRITE_BUFFER?ZF_FIFO
00061BH   000628H   00000EH   BYTE   UNIT     EDATA          ?ED?PWM_DUTY?ZF_PWM
000629H   000636H   00000EH   BYTE   UNIT     EDATA          ?ED?UART_INIT?ZF_UART
000637H   000644H   00000EH   BYTE   UNIT     EDATA          ?ED?OLED_PRINT_CHINESE?SEEKFREE_OLED
000645H   000652H   00000EH   BYTE   UNIT     EDATA          ?ED?OLED_PRINT_CHINESE_SPI?SEEKFREE_OLED
000653H   000660H   00000EH   BYTE   UNIT     EDATA          ?ED?DATA_CONVERSION?SEEKFREE_VIRSCO
000661H   00066DH   00000DH   BYTE   UNIT     EDATA          ?ED?ICM20602_SIMSPI_R_REG_BYTES?SEEKFREE_ICM20602
L251 LINKER/LOCATER V4.66.93.0                                                        07/19/2023  21:09:12  PAGE 4


00066EH   00067AH   00000DH   BYTE   UNIT     EDATA          ?ED?PRINTF_REVERSE_ORDER?SEEKFREE_PRINTF
00067BH   000687H   00000DH   BYTE   UNIT     EDATA          ?ED?MAIN
000688H   000693H   00000CH   BYTE   UNIT     EDATA          ?ED?FIFO_INIT?ZF_FIFO
000694H   00069FH   00000CH   BYTE   UNIT     EDATA          ?ED?LCD_SHOWINT16_SIMSPI?SEEKFREE_18TFT
0006A0H   0006ABH   00000CH   BYTE   UNIT     EDATA          ?ED?LCD_SHOWUINT16_SIMSPI?SEEKFREE_18TFT
0006ACH   0006B7H   00000CH   BYTE   UNIT     EDATA          ?ED?LCD_SHOWINT16?SEEKFREE_18TFT
0006B8H   0006C3H   00000CH   BYTE   UNIT     EDATA          ?ED?LCD_SHOWUINT16?SEEKFREE_18TFT
0006C4H   0006CFH   00000CH   BYTE   UNIT     EDATA          ?ED?SHOWIMAGE?SEEKFREE_18TFT
0006D0H   0006DBH   00000CH   BYTE   UNIT     EDATA          ?ED?BLUETOOTH_CH9141_READ_BUFF?SEEKFREE_BLUETOOTH_CH9141
0006DCH   0006E7H   00000CH   BYTE   UNIT     EDATA          ?ED?DL1A_GET_SPAD_INFO?SEEKFREE_DL1A
0006E8H   0006F3H   00000CH   BYTE   UNIT     EDATA          ?ED?DL1A_GET_SEQUENCE_STEP_TIMEOUTS?SEEKFREE_DL1A
0006F4H   0006FFH   00000CH   BYTE   UNIT     EDATA          ?ED?SEEKFREE_ICM20602
000700H   00070BH   00000CH   BYTE   UNIT     EDATA          ?ED?SEEKFREE_IMU660RA
00070CH   000717H   00000CH   BYTE   UNIT     EDATA          ?ED?IPS114_SHOWINT16_SIMSPI?SEEKFREE_IPS114_SPI
000718H   000723H   00000CH   BYTE   UNIT     EDATA          ?ED?IPS114_SHOWUINT16_SIMSPI?SEEKFREE_IPS114_SPI
000724H   00072FH   00000CH   BYTE   UNIT     EDATA          ?ED?IPS114_SHOWINT16?SEEKFREE_IPS114_SPI
000730H   00073BH   00000CH   BYTE   UNIT     EDATA          ?ED?IPS114_SHOWUINT16?SEEKFREE_IPS114_SPI
00073CH   000747H   00000CH   BYTE   UNIT     EDATA          ?ED?SEEKFREE_MPU6050
000748H   000753H   00000CH   BYTE   UNIT     EDATA          ?ED?WIRELESS_UART_READ_BUFF?SEEKFREE_WIRELESS
000754H   00075FH   00000CH   BYTE   UNIT     EDATA          ?ED?WIRELESS_CH573_READ_BUFF?SEEKFREE_WIRELESS_CH573
000760H   00076BH   00000CH   BYTE   UNIT     EDATA          ?ED?IPS200_SHOWINT16_SIMSPI?SEEKFREE_IPS200_SPI
00076CH   000777H   00000CH   BYTE   UNIT     EDATA          ?ED?IPS200_SHOWUINT16_SIMSPI?SEEKFREE_IPS200_SPI
000778H   000783H   00000CH   BYTE   UNIT     EDATA          ?ED?IPS200_SHOWINT16?SEEKFREE_IPS200_SPI
000784H   00078FH   00000CH   BYTE   UNIT     EDATA          ?ED?IPS200_SHOWUINT16?SEEKFREE_IPS200_SPI
000790H   00079BH   00000CH   BYTE   UNIT     EDATA          ?ED?COMPUTERADC?CONTROL
00079CH   0007A6H   00000BH   BYTE   UNIT     EDATA          ?ED?OLED_UINT16?SEEKFREE_OLED
0007A7H   0007B1H   00000BH   BYTE   UNIT     EDATA          ?ED?OLED_INT16?SEEKFREE_OLED
0007B2H   0007BCH   00000BH   BYTE   UNIT     EDATA          ?ED?OLED_UINT16_SPI?SEEKFREE_OLED
0007BDH   0007C7H   00000BH   BYTE   UNIT     EDATA          ?ED?OLED_INT16_SPI?SEEKFREE_OLED
0007C8H   0007D1H   00000AH   BYTE   UNIT     EDATA          ?ED?LCD_SHOWSTR_SIMSPI?SEEKFREE_18TFT
0007D2H   0007DBH   00000AH   BYTE   UNIT     EDATA          ?ED?LCD_SHOWSTR?SEEKFREE_18TFT
0007DCH   0007E5H   00000AH   BYTE   UNIT     EDATA          ?ED?BLUETOOTH_CH9141_SEND_BUFF?SEEKFREE_BLUETOOTH_CH9141
0007E6H   0007EFH   00000AH   BYTE   UNIT     EDATA          ?ED?DL1A_SIMIIC_READ_REGS?SEEKFREE_DL1A
0007F0H   0007F9H   00000AH   BYTE   UNIT     EDATA          ?ED?DL1A_SIMIIC_READ_REGS_1?SEEKFREE_DL1A
0007FAH   000803H   00000AH   BYTE   UNIT     EDATA          ?ED?DL1A_ENCODE_TIMEOUT?SEEKFREE_DL1A
000804H   00080DH   00000AH   BYTE   UNIT     EDATA          ?ED?IPS114_SHOWSTR_SIMSPI?SEEKFREE_IPS114_SPI
00080EH   000817H   00000AH   BYTE   UNIT     EDATA          ?ED?IPS114_SHOWSTR?SEEKFREE_IPS114_SPI
000818H   000821H   00000AH   BYTE   UNIT     EDATA          ?ED?SEEKFREE_VIRSCO
000822H   00082BH   00000AH   BYTE   UNIT     EDATA          ?ED?IPS200_SHOWSTR_SIMSPI?SEEKFREE_IPS200_SPI
00082CH   000835H   00000AH   BYTE   UNIT     EDATA          ?ED?IPS200_SHOWSTR?SEEKFREE_IPS200_SPI
000836H   00083FH   00000AH   BYTE   UNIT     EDATA          ?ED?PID_MOTOR?CONTROL
000840H   000848H   000009H   BYTE   UNIT     EDATA          ?ED?LCD_SHOWINT8_SIMSPI?SEEKFREE_18TFT
000849H   000851H   000009H   BYTE   UNIT     EDATA          ?ED?LCD_SHOWUINT8_SIMSPI?SEEKFREE_18TFT
000852H   00085AH   000009H   BYTE   UNIT     EDATA          ?ED?LCD_SHOWINT8?SEEKFREE_18TFT
00085BH   000863H   000009H   BYTE   UNIT     EDATA          ?ED?LCD_SHOWUINT8?SEEKFREE_18TFT
000864H   00086CH   000009H   BYTE   UNIT     EDATA          ?ED?DL1A_SIMIIC_WRITE_DATS?SEEKFREE_DL1A
00086DH   000875H   000009H   BYTE   UNIT     EDATA          ?ED?DL1A_TIMEOUT_MICROSECONDS_TO_MCLKS?SEEKFREE_DL1A
000876H   00087EH   000009H   BYTE   UNIT     EDATA          ?ED?DL1A_SET_SIGNAL_RATE_LIMIT?SEEKFREE_DL1A
00087FH   000887H   000009H   BYTE   UNIT     EDATA          ?ED?ICM20602_READ_REGISTERS?SEEKFREE_ICM20602
000888H   000890H   000009H   BYTE   UNIT     EDATA          ?ED?IMU660RA_SIMSPI_W_REG_BYTES?SEEKFREE_IMU660RA
000891H   000899H   000009H   BYTE   UNIT     EDATA          ?ED?IMU660RA_SIMSPI_R_REG_BYTES?SEEKFREE_IMU660RA
00089AH   0008A2H   000009H   BYTE   UNIT     EDATA          ?ED?IMU660RA_WRITE_REGISTERS?SEEKFREE_IMU660RA
0008A3H   0008ABH   000009H   BYTE   UNIT     EDATA          ?ED?IMU660RA_READ_REGISTERS?SEEKFREE_IMU660RA
0008ACH   0008B4H   000009H   BYTE   UNIT     EDATA          ?ED?IMU963RA_SIMSPI_R_REG_BYTES?SEEKFREE_IMU963RA
0008B5H   0008BDH   000009H   BYTE   UNIT     EDATA          ?ED?IMU963RA_READ_ACC_GYRO_REGISTERS?SEEKFREE_IMU963RA
0008BEH   0008C6H   000009H   BYTE   UNIT     EDATA          ?ED?IPS114_SHOWINT8_SIMSPI?SEEKFREE_IPS114_SPI
0008C7H   0008CFH   000009H   BYTE   UNIT     EDATA          ?ED?IPS114_SHOWUINT8_SIMSPI?SEEKFREE_IPS114_SPI
0008D0H   0008D8H   000009H   BYTE   UNIT     EDATA          ?ED?IPS114_SHOWINT8?SEEKFREE_IPS114_SPI
0008D9H   0008E1H   000009H   BYTE   UNIT     EDATA          ?ED?IPS114_SHOWUINT8?SEEKFREE_IPS114_SPI
0008E2H   0008EAH   000009H   BYTE   UNIT     EDATA          ?ED?OLED_P6X8STR?SEEKFREE_OLED
0008EBH   0008F3H   000009H   BYTE   UNIT     EDATA          ?ED?OLED_P8X16STR?SEEKFREE_OLED
0008F4H   0008FCH   000009H   BYTE   UNIT     EDATA          ?ED?OLED_P6X8STR_SPI?SEEKFREE_OLED
0008FDH   000905H   000009H   BYTE   UNIT     EDATA          ?ED?OLED_P8X16STR_SPI?SEEKFREE_OLED
000906H   00090EH   000009H   BYTE   UNIT     EDATA          ?ED?CRC_CHECK?SEEKFREE_VIRSCO
00090FH   000917H   000009H   BYTE   UNIT     EDATA          ?ED?IPS200_SHOWINT8_SIMSPI?SEEKFREE_IPS200_SPI
L251 LINKER/LOCATER V4.66.93.0                                                        07/19/2023  21:09:12  PAGE 5


000918H   000920H   000009H   BYTE   UNIT     EDATA          ?ED?IPS200_SHOWUINT8_SIMSPI?SEEKFREE_IPS200_SPI
000921H   000929H   000009H   BYTE   UNIT     EDATA          ?ED?IPS200_SHOWINT8?SEEKFREE_IPS200_SPI
00092AH   000932H   000009H   BYTE   UNIT     EDATA          ?ED?IPS200_SHOWUINT8?SEEKFREE_IPS200_SPI
000933H   00093BH   000009H   BYTE   UNIT     EDATA          ?ED?SPEEDCOMPUTERL?CONTROL
00093CH   000944H   000009H   BYTE   UNIT     EDATA          ?ED?SPEEDCOMPUTERR?CONTROL
000945H   00094DH   000009H   BYTE   UNIT     EDATA          ?ED?TOF_GET?CONTROL
00094EH   000955H   000008H   BYTE   UNIT     EDATA          ?ED?IAP_READ_BYTES?ZF_EEPROM
000956H   00095DH   000008H   BYTE   UNIT     EDATA          ?ED?IAP_WRITE_BYTES?ZF_EEPROM
00095EH   000965H   000008H   BYTE   UNIT     EDATA          ?ED?UART_PUTBUFF?ZF_UART
000966H   00096DH   000008H   BYTE   UNIT     EDATA          ?ED?FIFO_HEAD_OFFSET?ZF_FIFO
00096EH   000975H   000008H   BYTE   UNIT     EDATA          ?ED?FIFO_END_OFFSET?ZF_FIFO
000976H   00097DH   000008H   BYTE   UNIT     EDATA          ?ED?LCD_SET_REGION_SIMSPI?SEEKFREE_18TFT
00097EH   000985H   000008H   BYTE   UNIT     EDATA          ?ED?LCD_SHOWCHAR_SIMSPI?SEEKFREE_18TFT
000986H   00098DH   000008H   BYTE   UNIT     EDATA          ?ED?LCD_SET_REGION?SEEKFREE_18TFT
00098EH   000995H   000008H   BYTE   UNIT     EDATA          ?ED?LCD_SHOWCHAR?SEEKFREE_18TFT
000996H   00099DH   000008H   BYTE   UNIT     EDATA          ?ED?IPS114_SET_REGION_SIMSPI?SEEKFREE_IPS114_SPI
00099EH   0009A5H   000008H   BYTE   UNIT     EDATA          ?ED?IPS114_SHOWCHAR_SIMSPI?SEEKFREE_IPS114_SPI
0009A6H   0009ADH   000008H   BYTE   UNIT     EDATA          ?ED?IPS114_SET_REGION?SEEKFREE_IPS114_SPI
0009AEH   0009B5H   000008H   BYTE   UNIT     EDATA          ?ED?IPS114_SHOWCHAR?SEEKFREE_IPS114_SPI
0009B6H   0009BDH   000008H   BYTE   UNIT     EDATA          ?ED?OLED_HEXASCII?SEEKFREE_OLED
0009BEH   0009C5H   000008H   BYTE   UNIT     EDATA          ?ED?OLED_HEXASCII_SPI?SEEKFREE_OLED
0009C6H   0009CDH   000008H   BYTE   UNIT     EDATA          ?ED?IPS200_SET_REGION_SIMSPI?SEEKFREE_IPS200_SPI
0009CEH   0009D5H   000008H   BYTE   UNIT     EDATA          ?ED?IPS200_SHOWCHAR_SIMSPI?SEEKFREE_IPS200_SPI
0009D6H   0009DDH   000008H   BYTE   UNIT     EDATA          ?ED?IPS200_SET_REGION?SEEKFREE_IPS200_SPI
0009DEH   0009E5H   000008H   BYTE   UNIT     EDATA          ?ED?IPS200_SHOWCHAR?SEEKFREE_IPS200_SPI
0009E6H   0009EDH   000008H   BYTE   UNIT     EDATA          ?ED?MOTOR
0009EEH   0009F5H   000008H   BYTE   UNIT     EDATA          ?ED?MY_ADC
0009F6H   0009FCH   000007H   BYTE   UNIT     EDATA          ?ED?SPI_INIT?ZF_SPI
0009FDH   000A03H   000007H   BYTE   UNIT     EDATA          ?ED?DL1A_TIMEOUT_MCLKS_TO_MICROSECONDS?SEEKFREE_DL1A
000A04H   000A0AH   000007H   BYTE   UNIT     EDATA          ?ED?IMU660RA_GET_ACC?SEEKFREE_IMU660RA
000A0BH   000A11H   000007H   BYTE   UNIT     EDATA          ?ED?IMU660RA_GET_GYRO?SEEKFREE_IMU660RA
000A12H   000A18H   000007H   BYTE   UNIT     EDATA          ?ED?IMU963RA_GET_MAG?SEEKFREE_IMU963RA
000A19H   000A1FH   000007H   BYTE   UNIT     EDATA          ?ED?MPU6050_SIMIIC_READ_REGS?SEEKFREE_MPU6050
000A20H   000A26H   000007H   BYTE   UNIT     EDATA          ?ED?ISR
000A27H   000A2CH   000006H   BYTE   UNIT     EDATA          ?ED?ADC_ONCE?ZF_ADC
000A2DH   000A32H   000006H   BYTE   UNIT     EDATA          ?ED?DELAY_US?ZF_DELAY
000A33H   000A38H   000006H   BYTE   UNIT     EDATA          ?ED?PIT_TIMER_MS?ZF_TIM
000A39H   000A3EH   000006H   BYTE   UNIT     EDATA          ?ED?UART_PUTSTR?ZF_UART
000A3FH   000A44H   000006H   BYTE   UNIT     EDATA          ?ED?LCD_DRAWPOINT_SIMSPI?SEEKFREE_18TFT
000A45H   000A4AH   000006H   BYTE   UNIT     EDATA          ?ED?LCD_DRAWPOINT?SEEKFREE_18TFT
000A4BH   000A50H   000006H   BYTE   UNIT     EDATA          ?ED?ICM20602_GET_ACC?SEEKFREE_ICM20602
000A51H   000A56H   000006H   BYTE   UNIT     EDATA          ?ED?ICM20602_GET_GYRO?SEEKFREE_ICM20602
000A57H   000A5CH   000006H   BYTE   UNIT     EDATA          ?ED?ICM20602_ACC_TRANSITION?SEEKFREE_ICM20602
000A5DH   000A62H   000006H   BYTE   UNIT     EDATA          ?ED?ICM20602_GYRO_TRANSITION?SEEKFREE_ICM20602
000A63H   000A68H   000006H   BYTE   UNIT     EDATA          ?ED?IMU660RA_ACC_TRANSITION?SEEKFREE_IMU660RA
000A69H   000A6EH   000006H   BYTE   UNIT     EDATA          ?ED?IMU660RA_GYRO_TRANSITION?SEEKFREE_IMU660RA
000A6FH   000A74H   000006H   BYTE   UNIT     EDATA          ?ED?IMU963RA_WRITE_MAG_REGISTER?SEEKFREE_IMU963RA
000A75H   000A7AH   000006H   BYTE   UNIT     EDATA          ?ED?IMU963RA_GET_ACC?SEEKFREE_IMU963RA
000A7BH   000A80H   000006H   BYTE   UNIT     EDATA          ?ED?IMU963RA_GET_GYRO?SEEKFREE_IMU963RA
000A81H   000A86H   000006H   BYTE   UNIT     EDATA          ?ED?IMU963RA_ACC_TRANSITION?SEEKFREE_IMU963RA
000A87H   000A8CH   000006H   BYTE   UNIT     EDATA          ?ED?IMU963RA_GYRO_TRANSITION?SEEKFREE_IMU963RA
000A8DH   000A92H   000006H   BYTE   UNIT     EDATA          ?ED?IMU963RA_MAG_TRANSITION?SEEKFREE_IMU963RA
000A93H   000A98H   000006H   BYTE   UNIT     EDATA          ?ED?IPS114_CLEAR_SIMSPI?SEEKFREE_IPS114_SPI
000A99H   000A9EH   000006H   BYTE   UNIT     EDATA          ?ED?IPS114_DRAWPOINT_SIMSPI?SEEKFREE_IPS114_SPI
000A9FH   000AA4H   000006H   BYTE   UNIT     EDATA          ?ED?IPS114_CLEAR?SEEKFREE_IPS114_SPI
000AA5H   000AAAH   000006H   BYTE   UNIT     EDATA          ?ED?IPS114_DRAWPOINT?SEEKFREE_IPS114_SPI
000AABH   000AB0H   000006H   BYTE   UNIT     EDATA          ?ED?MPU6050_GET_ACCDATA?SEEKFREE_MPU6050
000AB1H   000AB6H   000006H   BYTE   UNIT     EDATA          ?ED?MPU6050_GET_GYRO?SEEKFREE_MPU6050
000AB7H   000ABCH   000006H   BYTE   UNIT     EDATA          ?ED?WIRELESS_UART_SEND_BUFF?SEEKFREE_WIRELESS
000ABDH   000AC2H   000006H   BYTE   UNIT     EDATA          ?ED?WIRELESS_CH573_SEND_BUFF?SEEKFREE_WIRELESS_CH573
000AC3H   000AC8H   000006H   BYTE   UNIT     EDATA          ?ED?IPS200_CLEAR_SIMSPI?SEEKFREE_IPS200_SPI
000AC9H   000ACEH   000006H   BYTE   UNIT     EDATA          ?ED?IPS200_DRAWPOINT_SIMSPI?SEEKFREE_IPS200_SPI
000ACFH   000AD4H   000006H   BYTE   UNIT     EDATA          ?ED?IPS200_CLEAR?SEEKFREE_IPS200_SPI
000AD5H   000ADAH   000006H   BYTE   UNIT     EDATA          ?ED?IPS200_DRAWPOINT?SEEKFREE_IPS200_SPI
000ADBH   000ADFH   000005H   BYTE   UNIT     EDATA          ?ED?ZF_UART
L251 LINKER/LOCATER V4.66.93.0                                                        07/19/2023  21:09:12  PAGE 6


000AE0H   000AE4H   000005H   BYTE   UNIT     EDATA          ?ED?DL1A_GET_SEQUENCE_STEP_ENABLES?SEEKFREE_DL1A
000AE5H   000AE9H   000005H   BYTE   UNIT     EDATA          ?ED?DL1A_PERFORM_SINGLE_REF_CALIBRATION?SEEKFREE_DL1A
000AEAH   000AEEH   000005H   BYTE   UNIT     EDATA          ?ED?ICM20602_SIMSPI_R_REG_BYTE?SEEKFREE_ICM20602
000AEFH   000AF3H   000005H   BYTE   UNIT     EDATA          ?ED?IMU963RA_SIMSPI_R_REG_BYTE?SEEKFREE_IMU963RA
000AF4H   000AF7H   000004H   BYTE   UNIT     EDATA          ?ED?BOARD
000AF8H   000AFBH   000004H   BYTE   UNIT     EDATA          ?ED?ADC_INIT?ZF_ADC
000AFCH   000AFFH   000004H   BYTE   UNIT     EDATA          ?ED?ZF_DELAY
000B00H   000B03H   000004H   BYTE   UNIT     EDATA          ?ED?DELAY_MS?ZF_DELAY
000B04H   000B07H   000004H   BYTE   UNIT     EDATA          ?ED?EXIT_INIT?ZF_EXTI
000B08H   000B0BH   000004H   BYTE   UNIT     EDATA          ?ED?GPIO_PULL_SET?ZF_GPIO
000B0CH   000B0FH   000004H   BYTE   UNIT     EDATA          ?ED?GPIO_MODE?ZF_GPIO
000B10H   000B13H   000004H   BYTE   UNIT     EDATA          ?ED?CTIMER_COUNT_READ?ZF_TIM
000B14H   000B17H   000004H   BYTE   UNIT     EDATA          ?ED?FIFO_CLEAR?ZF_FIFO
000B18H   000B1BH   000004H   BYTE   UNIT     EDATA          ?ED?FIFO_USED?ZF_FIFO
000B1CH   000B1FH   000004H   BYTE   UNIT     EDATA          ?ED?LCD_CLEAR_SIMSPI?SEEKFREE_18TFT
000B20H   000B23H   000004H   BYTE   UNIT     EDATA          ?ED?LCD_WRITEDATA_16BIT?SEEKFREE_18TFT
000B24H   000B27H   000004H   BYTE   UNIT     EDATA          ?ED?LCD_CLEAR?SEEKFREE_18TFT
000B28H   000B2BH   000004H   BYTE   UNIT     EDATA          ?ED?ICM20602_SELF_CHECK?SEEKFREE_ICM20602
000B2CH   000B2FH   000004H   BYTE   UNIT     EDATA          ?ED?ICM20602_INIT?SEEKFREE_ICM20602
000B30H   000B33H   000004H   BYTE   UNIT     EDATA          ?ED?IMU660RA_SELF_CHECK?SEEKFREE_IMU660RA
000B34H   000B37H   000004H   BYTE   UNIT     EDATA          ?ED?IMU963RA_READ_MAG_REGISTER?SEEKFREE_IMU963RA
000B38H   000B3BH   000004H   BYTE   UNIT     EDATA          ?ED?IMU963RA_ACC_GYRO_SELF_CHECK?SEEKFREE_IMU963RA
000B3CH   000B3FH   000004H   BYTE   UNIT     EDATA          ?ED?IMU963RA_MAG_SELF_CHECK?SEEKFREE_IMU963RA
000B40H   000B43H   000004H   BYTE   UNIT     EDATA          ?ED?IPS114_WRITEDATA_16BIT?SEEKFREE_IPS114_SPI
000B44H   000B47H   000004H   BYTE   UNIT     EDATA          ?ED?IPS200_WRITEDATA_16BIT?SEEKFREE_IPS200_SPI
000B48H   000B4BH   000004H   BYTE   UNIT     EDATA          ?ED?SERVOCONTROL?MOTOR
000B4CH   000B4FH   000004H   BYTE   UNIT     EDATA          ?ED?ENCODER
000B50H   000B53H   000004H   BYTE   UNIT     EDATA          ?ED?FABS?CONTROL
000B54H   000B57H   000004H   BYTE   UNIT     EDATA          ?ED?SERVOCORRECTION?CONTROL
000B58H   000B5AH   000003H   BYTE   UNIT     EDATA          ?ED?NVIC_SETPRIORITY?ZF_NVIC
000B5BH   000B5DH   000003H   BYTE   UNIT     EDATA          ?ED?UART_PUTCHAR?ZF_UART
000B5EH   000B60H   000003H   BYTE   UNIT     EDATA          ?ED?LCD_WRITEDATA_16BIT_SIMSPI?SEEKFREE_18TFT
000B61H   000B63H   000003H   BYTE   UNIT     EDATA          ?ED?SEEKFREE_DL1A
000B64H   000B66H   000003H   BYTE   UNIT     EDATA          ?ED?DL1A_READ_CH?SEEKFREE_DL1A
000B67H   000B69H   000003H   BYTE   UNIT     EDATA          ?ED?DL1A_SIMIIC_WRITE_REG?SEEKFREE_DL1A
000B6AH   000B6CH   000003H   BYTE   UNIT     EDATA          ?ED?DL1A_SIMIIC_READ_REG?SEEKFREE_DL1A
000B6DH   000B6FH   000003H   BYTE   UNIT     EDATA          ?ED?DL1A_GET_VCSEL_PULSE_PERIOD?SEEKFREE_DL1A
000B70H   000B72H   000003H   BYTE   UNIT     EDATA          ?ED?DL1A_GET_DISTANCE?SEEKFREE_DL1A
000B73H   000B75H   000003H   BYTE   UNIT     EDATA          ?ED?IMU660RA_READ_REGISTER?SEEKFREE_IMU660RA
000B76H   000B78H   000003H   BYTE   UNIT     EDATA          ?ED?IPS114_WRITEDATAI_16BIT_SIMSPI?SEEKFREE_IPS114_SPI
000B79H   000B7BH   000003H   BYTE   UNIT     EDATA          ?ED?MPU6050_READ_CH?SEEKFREE_MPU6050
000B7CH   000B7EH   000003H   BYTE   UNIT     EDATA          ?ED?MPU6050_SIMIIC_WRITE_REG?SEEKFREE_MPU6050
000B7FH   000B81H   000003H   BYTE   UNIT     EDATA          ?ED?MPU6050_SIMIIC_READ_REG?SEEKFREE_MPU6050
000B82H   000B84H   000003H   BYTE   UNIT     EDATA          ?ED?OLED_FILL?SEEKFREE_OLED
000B85H   000B87H   000003H   BYTE   UNIT     EDATA          ?ED?OLED_PUTPIXEL?SEEKFREE_OLED
000B88H   000B8AH   000003H   BYTE   UNIT     EDATA          ?ED?OLED_FILL_SPI?SEEKFREE_OLED
000B8BH   000B8DH   000003H   BYTE   UNIT     EDATA          ?ED?OLED_PUTPIXEL_SPI?SEEKFREE_OLED
000B8EH   000B90H   000003H   BYTE   UNIT     EDATA          ?ED?IPS200_WRITEDATAI_16BIT_SIMSPI?SEEKFREE_IPS200_SPI
000B91H   000B92H   000002H   BYTE   UNIT     EDATA          ?ED?COMMON
000B93H   000B94H   000002H   BYTE   UNIT     EDATA          ?ED?IAP_ERASE_PAGE?ZF_EEPROM
000B95H   000B96H   000002H   BYTE   UNIT     EDATA          ?ED?PWM_SET_GPIO?ZF_PWM
000B97H   000B98H   000002H   BYTE   UNIT     EDATA          ?ED?SPI_CHANGE_PIN?ZF_SPI
000B99H   000B9AH   000002H   BYTE   UNIT     EDATA          ?ED?CTIMER_COUNT_INIT?ZF_TIM
000B9BH   000B9CH   000002H   BYTE   UNIT     EDATA          ?ED?CTIMER_COUNT_CLEAN?ZF_TIM
000B9DH   000B9EH   000002H   BYTE   UNIT     EDATA          ?ED?LCD_WRITEINDEX_SIMSPI?SEEKFREE_18TFT
000B9FH   000BA0H   000002H   BYTE   UNIT     EDATA          ?ED?LCD_WRITEDATA_SIMSPI?SEEKFREE_18TFT
000BA1H   000BA2H   000002H   BYTE   UNIT     EDATA          ?ED?DL1A_SIMIIC_DELAY?SEEKFREE_DL1A
000BA3H   000BA4H   000002H   BYTE   UNIT     EDATA          ?ED?DL1A_SEND_CH?SEEKFREE_DL1A
000BA5H   000BA6H   000002H   BYTE   UNIT     EDATA          ?ED?DL1A_DECODE_TIMEOUT?SEEKFREE_DL1A
000BA7H   000BA8H   000002H   BYTE   UNIT     EDATA          ?ED?ICM20602_SIMSPI_WR_BYTE?SEEKFREE_ICM20602
000BA9H   000BAAH   000002H   BYTE   UNIT     EDATA          ?ED?ICM20602_SIMSPI_W_REG_BYTE?SEEKFREE_ICM20602
000BABH   000BACH   000002H   BYTE   UNIT     EDATA          ?ED?ICM20602_WRITE_REGISTER?SEEKFREE_ICM20602
000BADH   000BAEH   000002H   BYTE   UNIT     EDATA          ?ED?ICM20602_READ_REGISTER?SEEKFREE_ICM20602
000BAFH   000BB0H   000002H   BYTE   UNIT     EDATA          ?ED?IMU660RA_SIMSPI_WR_BYTE?SEEKFREE_IMU660RA
000BB1H   000BB2H   000002H   BYTE   UNIT     EDATA          ?ED?IMU660RA_SIMSPI_W_REG_BYTE?SEEKFREE_IMU660RA
L251 LINKER/LOCATER V4.66.93.0                                                        07/19/2023  21:09:12  PAGE 7


000BB3H   000BB4H   000002H   BYTE   UNIT     EDATA          ?ED?IMU660RA_WRITE_REGISTER?SEEKFREE_IMU660RA
000BB5H   000BB6H   000002H   BYTE   UNIT     EDATA          ?ED?IMU963RA_SIMSPI_WR_BYTE?SEEKFREE_IMU963RA
000BB7H   000BB8H   000002H   BYTE   UNIT     EDATA          ?ED?IMU963RA_SIMSPI_W_REG_BYTE?SEEKFREE_IMU963RA
000BB9H   000BBAH   000002H   BYTE   UNIT     EDATA          ?ED?IMU963RA_WRITE_ACC_GYRO_REGISTER?SEEKFREE_IMU963RA
000BBBH   000BBCH   000002H   BYTE   UNIT     EDATA          ?ED?IMU963RA_READ_ACC_GYRO_REGISTER?SEEKFREE_IMU963RA
000BBDH   000BBEH   000002H   BYTE   UNIT     EDATA          ?ED?IMU963RA_CONNECT_MAG?SEEKFREE_IMU963RA
000BBFH   000BC0H   000002H   BYTE   UNIT     EDATA          ?ED?IPS114_WRITEINDEX_SIMSPI?SEEKFREE_IPS114_SPI
000BC1H   000BC2H   000002H   BYTE   UNIT     EDATA          ?ED?IPS114_WRITEDATA_SIMSPI?SEEKFREE_IPS114_SPI
000BC3H   000BC4H   000002H   BYTE   UNIT     EDATA          ?ED?MPU6050_SIMIIC_DELAY?SEEKFREE_MPU6050
000BC5H   000BC6H   000002H   BYTE   UNIT     EDATA          ?ED?MPU6050_SEND_CH?SEEKFREE_MPU6050
000BC7H   000BC8H   000002H   BYTE   UNIT     EDATA          ?ED?OLED_WRDAT?SEEKFREE_OLED
000BC9H   000BCAH   000002H   BYTE   UNIT     EDATA          ?ED?OLED_WRCMD?SEEKFREE_OLED
000BCBH   000BCCH   000002H   BYTE   UNIT     EDATA          ?ED?OLED_SET_POS?SEEKFREE_OLED
000BCDH   000BCEH   000002H   BYTE   UNIT     EDATA          ?ED?OLED_CLRPIXEL?SEEKFREE_OLED
000BCFH   000BD0H   000002H   BYTE   UNIT     EDATA          ?ED?OLED_SET_POS_SPI?SEEKFREE_OLED
000BD1H   000BD2H   000002H   BYTE   UNIT     EDATA          ?ED?OLED_CLRPIXEL_SPI?SEEKFREE_OLED
000BD3H   000BD4H   000002H   BYTE   UNIT     EDATA          ?ED?IPS200_WRITEINDEX_SIMSPI?SEEKFREE_IPS200_SPI
000BD5H   000BD6H   000002H   BYTE   UNIT     EDATA          ?ED?IPS200_WRITEDATA_SIMSPI?SEEKFREE_IPS200_SPI
000BD7H   000BD8H   000002H   BYTE   UNIT     EDATA          ?ED?MOTORCONTROLR?MOTOR
000BD9H   000BDAH   000002H   BYTE   UNIT     EDATA          ?ED?MOTORCONTROLL?MOTOR
000BDBH   000BDCH   000002H   BYTE   UNIT     EDATA          ?ED?RAMP_JUDGE?CONTROL
000BDDH   000BDDH   000001H   BYTE   UNIT     EDATA          ?ED?PUTCHAR?BOARD
000BDEH   000BDEH   000001H   BYTE   UNIT     EDATA          ?ED?IAP_SET_TPS?ZF_EEPROM
000BDFH   000BDFH   000001H   BYTE   UNIT     EDATA          ?ED?SPI_MOSI?ZF_SPI
000BE0H   000BE0H   000001H   BYTE   UNIT     EDATA          ?ED?SPI_CHANGE_MODE?ZF_SPI
000BE1H   000BE1H   000001H   BYTE   UNIT     EDATA          ?ED?LCD_WRITEINDEX?SEEKFREE_18TFT
000BE2H   000BE2H   000001H   BYTE   UNIT     EDATA          ?ED?LCD_WRITEDATA?SEEKFREE_18TFT
000BE3H   000BE3H   000001H   BYTE   UNIT     EDATA          ?ED?DL1A_SIMIIC_SENDACK?SEEKFREE_DL1A
000BE4H   000BE4H   000001H   BYTE   UNIT     EDATA          ?ED?IMU660RA_INIT?SEEKFREE_IMU660RA
000BE5H   000BE5H   000001H   BYTE   UNIT     EDATA          ?ED?IMU963RA_INIT?SEEKFREE_IMU963RA
000BE6H   000BE6H   000001H   BYTE   UNIT     EDATA          ?ED?IPS114_WRITEINDEX?SEEKFREE_IPS114_SPI
000BE7H   000BE7H   000001H   BYTE   UNIT     EDATA          ?ED?IPS114_WRITEDATA?SEEKFREE_IPS114_SPI
000BE8H   000BE8H   000001H   BYTE   UNIT     EDATA          ?ED?MPU6050_SIMIIC_SENDACK?SEEKFREE_MPU6050
000BE9H   000BE9H   000001H   BYTE   UNIT     EDATA          ?ED?OLED_WRDAT_SPI?SEEKFREE_OLED
000BEAH   000BEAH   000001H   BYTE   UNIT     EDATA          ?ED?OLED_WRCMD_SPI?SEEKFREE_OLED
000BEBH   000BEBH   000001H   BYTE   UNIT     EDATA          ?ED?IPS200_WRITEINDEX?SEEKFREE_IPS200_SPI
000BECH   000BECH   000001H   BYTE   UNIT     EDATA          ?ED?IPS200_WRITEDATA?SEEKFREE_IPS200_SPI
000BEDH   000BEDH   000001H   BYTE   UNIT     EDATA          ?ED?UART1_ISR?ISR
000BEEH   000BEEH   000001H   BYTE   UNIT     EDATA          ?ED?FASTSQRT?CONTROL
000BEFH   000BEFH   000001H   BYTE   UNIT     EDATA          ?ED?CIRCLE_JUDGE?CONTROL
000BF0H   000CEFH   000100H   BYTE   UNIT     EDATA          ?STACK
000CF0H   FEFFFFH   FEF310H   ---    ---      **GAP**
FF0000H   FF0002H   000003H   ---    OFFS..   CODE           ?CO?start251?4
FF0003H   FF0005H   000003H   ---    OFFS..   CODE           ?PR?IV?0
FF0006H   FF0009H   000004H   BYTE   INSEG    CODE           ?PR?ENABLEGLOBALIRQ?BOARD
FF000AH   FF000AH   000001H   BYTE   INSEG    CODE           ?PR?INT0_ISR?ISR
FF000BH   FF000DH   000003H   ---    OFFS..   CODE           ?PR?IV?1
FF000EH   FF0011H   000004H   BYTE   INSEG    CODE           ?PR?DISABLEGLOBALIRQ?BOARD
FF0012H   FF0012H   000001H   BYTE   INSEG    CODE           ?PR?TM1_ISR?ISR
FF0013H   FF0015H   000003H   ---    OFFS..   CODE           ?PR?IV?2
FF0016H   FF0019H   000004H   BYTE   UNIT     CONST          ?CO?PRINTF
FF001AH   FF001AH   000001H   ---    ---      **GAP**
FF001BH   FF001DH   000003H   ---    OFFS..   CODE           ?PR?IV?3
FF001EH   FF0022H   000005H   ---    ---      **GAP**
FF0023H   FF0025H   000003H   ---    OFFS..   CODE           ?PR?IV?4
FF0026H   FF003FH   00001AH   BYTE   INSEG    CODE           ?PR?BLUETOOTH_CH9141_UART_CALLBACK?SEEKFREE_BLUETOOTH_CH91
                                                             -41
FF0040H   FF0042H   000003H   ---    ---      **GAP**
FF0043H   FF0045H   000003H   ---    OFFS..   CODE           ?PR?IV?8
FF0046H   FF0050H   00000BH   BYTE   INSEG    CODE           ?PR?ENCODERINITR?ENCODER
FF0051H   FF0052H   000002H   ---    ---      **GAP**
FF0053H   FF0055H   000003H   ---    OFFS..   CODE           ?PR?IV?10
FF0056H   FF005AH   000005H   ---    ---      **GAP**
FF005BH   FF005DH   000003H   ---    OFFS..   CODE           ?PR?IV?11
FF005EH   FF0062H   000005H   ---    ---      **GAP**
L251 LINKER/LOCATER V4.66.93.0                                                        07/19/2023  21:09:12  PAGE 8


FF0063H   FF0065H   000003H   ---    OFFS..   CODE           ?PR?IV?12
FF0066H   FF007FH   00001AH   BYTE   INSEG    CODE           ?PR?WIRELESS_UART_CALLBACK?SEEKFREE_WIRELESS
FF0080H   FF0082H   000003H   ---    ---      **GAP**
FF0083H   FF0085H   000003H   ---    OFFS..   CODE           ?PR?IV?16
FF0086H   FF008AH   000005H   ---    ---      **GAP**
FF008BH   FF008DH   000003H   ---    OFFS..   CODE           ?PR?IV?17
FF008EH   FF0092H   000005H   ---    ---      **GAP**
FF0093H   FF0095H   000003H   ---    OFFS..   CODE           ?PR?IV?18
FF0096H   FF009AH   000005H   ---    ---      **GAP**
FF009BH   FF009DH   000003H   ---    OFFS..   CODE           ?PR?IV?19
FF009EH   FF00A2H   000005H   ---    ---      **GAP**
FF00A3H   FF00A5H   000003H   ---    OFFS..   CODE           ?PR?IV?20
FF00A6H   FF20A5H   002000H   BYTE   UNIT     CODE           ?CO?SEEKFREE_CONFIG
FF20A6H   FF2EADH   000E08H   BYTE   UNIT     CODE           ?CO?SEEKFREE_FONT
FF2EAEH   FF3856H   0009A9H   BYTE   UNIT     CODE           ?C?LIB_CODE
FF3857H   FF4163H   00090DH   BYTE   INSEG    CODE           ?PR?GPIO_MODE?ZF_GPIO
FF4164H   FF47B4H   000651H   BYTE   INSEG    CODE           ?PR?ZF_SPRINTF?SEEKFREE_PRINTF
FF47B5H   FF4B8EH   0003DAH   BYTE   INSEG    CODE           ?PR?PWM_INIT?ZF_PWM
FF4B8FH   FF4F46H   0003B8H   BYTE   INSEG    CODE           ?PR?PWM_SET_GPIO?ZF_PWM
FF4F47H   FF51F8H   0002B2H   BYTE   INSEG    CODE           ?PR?UART_INIT?ZF_UART
FF51F9H   FF544EH   000256H   BYTE   INSEG    CODE           ?PR?MAIN?MAIN
FF544FH   FF5654H   000206H   BYTE   INSEG    CODE           ?PR?SET_CLK?BOARD
FF5655H   FF5837H   0001E3H   BYTE   INSEG    CODE           ?PR?SPEEDCOMPUTERR?CONTROL
FF5838H   FF59F7H   0001C0H   BYTE   INSEG    CODE           ?PR?SPEEDCOMPUTERL?CONTROL
FF59F8H   FF5B8BH   000194H   BYTE   INSEG    CODE           ?PR?SHOWOLED?MAIN
FF5B8CH   FF5CFEH   000173H   BYTE   INSEG    CODE           ?PR?IPS200_INIT?SEEKFREE_IPS200_SPI
FF5CFFH   FF5E67H   000169H   BYTE   INSEG    CODE           ?PR?DL1A_GET_SEQUENCE_STEP_TIMEOUTS?SEEKFREE_DL1A
FF5E68H   FF5FC1H   00015AH   BYTE   INSEG    CODE           ?PR?PIDCONTROLSERVO?CONTROL
FF5FC2H   FF6106H   000145H   BYTE   INSEG    CODE           ?PR?IPS200_SHOWFLOAT?SEEKFREE_IPS200_SPI
FF6107H   FF623EH   000138H   BYTE   INSEG    CODE           ?PR?FIFO_WRITE_BUFFER?ZF_FIFO
FF623FH   FF6375H   000137H   BYTE   INSEG    CODE           ?PR?COMPUTERADC?CONTROL
FF6376H   FF648DH   000118H   BYTE   INSEG    CODE           ?PR?PWM_DUTY?ZF_PWM
FF648EH   FF65A4H   000117H   BYTE   INSEG    CODE           ?PR?NUMBER_CONVERSION_ASCII?SEEKFREE_PRINTF
FF65A5H   FF66B9H   000115H   BYTE   INSEG    CODE           ?PR?IPS200_SHOWINT16?SEEKFREE_IPS200_SPI
FF66BAH   FF67BEH   000105H   BYTE   INSEG    CODE           ?PR?TOF_GET?CONTROL
FF67BFH   FF68B3H   0000F5H   BYTE   INSEG    CODE           ?PR?SPI_INIT?ZF_SPI
FF68B4H   FF699AH   0000E7H   BYTE   INSEG    CODE           ?PR?PID_MOTOR?CONTROL
FF699BH   FF6A7FH   0000E5H   BYTE   INSEG    CODE           ?PR?PIT_TIMER_MS?ZF_TIM
FF6A80H   FF6B52H   0000D3H   BYTE   INSEG    CODE           ?PR?DIRECTION?CONTROL
FF6B53H   FF6C11H   0000BFH   BYTE   INSEG    CODE           ?PR?IPS200_SHOWCHAR?SEEKFREE_IPS200_SPI
FF6C12H   FF6CC6H   0000B5H   BYTE   INSEG    CODE           ?PR?ADC_INIT?ZF_ADC
FF6CC7H   FF6D7AH   0000B4H   BYTE   INSEG    CODE           ?PR?CTIMER_COUNT_READ?ZF_TIM
FF6D7BH   FF6E1FH   0000A5H   BYTE   INSEG    CODE           ?PR?IPS200_SHOWUINT8?SEEKFREE_IPS200_SPI
FF6E20H   FF6EB6H   000097H   BYTE   INSEG    CODE           ?PR?BOARD_INIT?BOARD
FF6EB7H   FF6F4BH   000095H   BYTE   INSEG    CODE           ?PR?PRINTF_REVERSE_ORDER?SEEKFREE_PRINTF
FF6F4CH   FF6FD9H   00008EH   BYTE   INSEG    CODE           ?PR?DL1A_GET_SEQUENCE_STEP_ENABLES?SEEKFREE_DL1A
FF6FDAH   FF705CH   000083H   BYTE   INSEG    CODE           ?PR?CROSS_CONTROL?CONTROL
FF705DH   FF70DFH   000083H   BYTE   INSEG    CODE           ?PR?RAMP_CONTROL?CONTROL
FF70E0H   FF7162H   000083H   BYTE   INSEG    CODE           ?PR?CIRCLE_CONTROL?CONTROL
FF7163H   FF71E2H   000080H   BYTE   INSEG    CODE           ?PR?DIRECTION_CIR?CONTROL
FF71E3H   FF7261H   00007FH   BYTE   INSEG    CODE           ?PR?DL1A_ENCODE_TIMEOUT?SEEKFREE_DL1A
FF7262H   FF72DBH   00007AH   BYTE   INSEG    CODE           ?PR?DL1A_GET_VCSEL_PULSE_PERIOD?SEEKFREE_DL1A
FF72DCH   FF7350H   000075H   BYTE   INSEG    CODE           ?PR?UART_PUTCHAR?ZF_UART
FF7351H   FF73C3H   000073H   BYTE   INSEG    CODE           ?PR?UART4_ISR?ISR
FF73C4H   FF7433H   000070H   BYTE   INSEG    CODE           ?PR?DIRECTION_CROSS?CONTROL
FF7434H   FF74A0H   00006DH   BYTE   INSEG    CODE           ?PR?RAMP_JUDGE?CONTROL
FF74A1H   FF750CH   00006CH   BYTE   INSEG    CODE           ?PR?DL1A_GET_DISTANCE?SEEKFREE_DL1A
FF750DH   FF7576H   00006AH   BYTE   INSEG    CODE           ?PR?FIFO_HEAD_OFFSET?ZF_FIFO
FF7577H   FF75E0H   00006AH   BYTE   INSEG    CODE           ?PR?DL1A_READ_CH?SEEKFREE_DL1A
FF75E1H   FF7648H   000068H   BYTE   INSEG    CODE           ?PR?DL1A_SIMIIC_READ_REGS?SEEKFREE_DL1A
FF7649H   FF76B0H   000068H   BYTE   INSEG    CODE           ?PR?DL1A_SIMIIC_READ_REGS_1?SEEKFREE_DL1A
FF76B1H   FF7712H   000062H   BYTE   INSEG    CODE           ?PR?TM2_ISR?ISR
FF7713H   FF7771H   00005FH   BYTE   INSEG    CODE           ?PR?IPS200_CLEAR?SEEKFREE_IPS200_SPI
FF7772H   FF77CEH   00005DH   BYTE   INSEG    CODE           ?PR?CTIMER_COUNT_CLEAN?ZF_TIM
FF77CFH   FF782BH   00005DH   BYTE   INSEG    CODE           ?PR?IPS200_SHOWSTR?SEEKFREE_IPS200_SPI
L251 LINKER/LOCATER V4.66.93.0                                                        07/19/2023  21:09:12  PAGE 9


FF782CH   FF7886H   00005BH   BYTE   INSEG    CODE           ?PR?CROSS_JUDGE?CONTROL
FF7887H   FF78DFH   000059H   BYTE   INSEG    CODE           ?PR?ICM20602_SIMSPI_WR_BYTE?SEEKFREE_ICM20602
FF78E0H   FF7938H   000059H   BYTE   INSEG    CODE           ?PR?IMU660RA_SIMSPI_WR_BYTE?SEEKFREE_IMU660RA
FF7939H   FF7991H   000059H   BYTE   INSEG    CODE           ?PR?IMU963RA_SIMSPI_WR_BYTE?SEEKFREE_IMU963RA
FF7992H   FF79E7H   000056H   BYTE   INSEG    CODE           ?PR?ADC_ONCE?ZF_ADC
FF79E8H   FF7A3BH   000054H   BYTE   INSEG    CODE           ?PR?CTIMER_COUNT_INIT?ZF_TIM
FF7A3CH   FF7A8EH   000053H   BYTE   INSEG    CODE           ?PR?DL1A_TIMEOUT_MCLKS_TO_MICROSECONDS?SEEKFREE_DL1A
FF7A8FH   FF7ADFH   000051H   BYTE   INSEG    CODE           ?PR?DL1A_TIMEOUT_MICROSECONDS_TO_MCLKS?SEEKFREE_DL1A
FF7AE0H   FF7B2FH   000050H   BYTE   INSEG    CODE           ?PR?IMU660RA_GET_GYRO?SEEKFREE_IMU660RA
FF7B30H   FF7B7BH   00004CH   BYTE   INSEG    CODE           ?PR?LCD_WRITEINDEX_SIMSPI?SEEKFREE_18TFT
FF7B7CH   FF7BC7H   00004CH   BYTE   INSEG    CODE           ?PR?LCD_WRITEDATA_SIMSPI?SEEKFREE_18TFT
FF7BC8H   FF7C12H   00004BH   BYTE   INSEG    CODE           ?PR?IMU660RA_SIMSPI_R_REG_BYTES?SEEKFREE_IMU660RA
FF7C13H   FF7C5CH   00004AH   BYTE   INSEG    CODE           ?PR?READENCODERR?ENCODER
FF7C5DH   FF7CA5H   000049H   BYTE   INSEG    CODE           ?PR?DL1A_SEND_CH?SEEKFREE_DL1A
FF7CA6H   FF7CEBH   000046H   BYTE   INSEG    CODE           ?PR?UART1_ISR?ISR
FF7CECH   FF7D2FH   000044H   BYTE   INSEG    CODE           ?PR?READENCODERL?ENCODER
FF7D30H   FF7D71H   000042H   BYTE   INSEG    CODE           ?PR?DL1A_SIMIIC_WRITE_DATS?SEEKFREE_DL1A
FF7D72H   FF7DB2H   000041H   BYTE   INSEG    CODE           ?PR?DELAY_INIT?ZF_DELAY
FF7DB3H   FF7DF2H   000040H   BYTE   INSEG    CODE           ?PR?SERVOCONTROL?MOTOR
FF7DF3H   FF7E05H   000013H   BYTE   UNIT     CODE           ?C_C51STARTUP
FF7E06H   FF7E2EH   000029H   BYTE   UNIT     CODE           ?C_C51STARTUP?2
FF7E2FH   FF7E31H   000003H   BYTE   UNIT     CODE           ?C_C51STARTUP?3
FF7E32H   FF7E6DH   00003CH   BYTE   INSEG    CODE           ?PR?IPS200_SET_REGION?SEEKFREE_IPS200_SPI
FF7E6EH   FF7EA6H   000039H   BYTE   INSEG    CODE           ?PR?CIRCLE_JUDGE?CONTROL
FF7EA7H   FF7EDBH   000035H   BYTE   INSEG    CODE           ?PR?DELAY_MS?ZF_DELAY
FF7EDCH   FF7F10H   000035H   BYTE   INSEG    CODE           ?PR?ADCREAD?MY_ADC
FF7F11H   FF7F3AH   00002AH   BYTE   INSEG    CODE           ?PR?DL1A_DECODE_TIMEOUT?SEEKFREE_DL1A
FF7F3BH   FF7F64H   00002AH   BYTE   INSEG    CODE           ?PR?DL1A_SIMIIC_WRITE_REG?SEEKFREE_DL1A
FF7F65H   FF7F8EH   00002AH   BYTE   INSEG    CODE           ?PR?IPS200_WRITEDATA_16BIT?SEEKFREE_IPS200_SPI
FF7F8FH   FF7FB6H   000028H   BYTE   INSEG    CODE           ?PR?DL1A_SIMIIC_SENDACK?SEEKFREE_DL1A
FF7FB7H   FF7FDCH   000026H   BYTE   INSEG    CODE           ?PR?IMU660RA_READ_REGISTERS?SEEKFREE_IMU660RA
FF7FDDH   FF8002H   000026H   BYTE   INSEG    CODE           ?PR?MOTORCONTROLL?MOTOR
FF8003H   FF8028H   000026H   BYTE   INSEG    CODE           ?PR?MOTORCONTROLR?MOTOR
FF8029H   FF804DH   000025H   BYTE   INSEG    CODE           ?PR?ADCINIT?MY_ADC
FF804EH   FF8072H   000025H   BYTE   INSEG    CODE           ?PR?MEMCPY?_?MEMCPY
FF8073H   FF8095H   000023H   BYTE   INSEG    CODE           ?PR?MOTORINIT?MOTOR
FF8096H   FF80B7H   000022H   BYTE   INSEG    CODE           ?PR?IMU660RA_READ_REGISTER?SEEKFREE_IMU660RA
FF80B8H   FF80D8H   000021H   BYTE   INSEG    CODE           ?PR?DL1A_SCCB_WAITACK?SEEKFREE_DL1A
FF80D9H   FF80F7H   00001FH   BYTE   INSEG    CODE           ?PR?DL1A_SIMIIC_DELAY?SEEKFREE_DL1A
FF80F8H   FF8116H   00001FH   BYTE   INSEG    CODE           ?PR?FABS?CONTROL
FF8117H   FF8134H   00001EH   BYTE   INSEG    CODE           ?PR?UART2_ISR?ISR
FF8135H   FF8152H   00001EH   BYTE   INSEG    CODE           ?PR?UART3_ISR?ISR
FF8153H   FF816CH   00001AH   BYTE   INSEG    CODE           ?PR?WIRELESS_CH573_CALLBACK?SEEKFREE_WIRELESS_CH573
FF816DH   FF8182H   000016H   BYTE   INSEG    CODE           ?PR?DL1A_SIMIIC_STOP?SEEKFREE_DL1A
FF8183H   FF8197H   000015H   BYTE   INSEG    CODE           ?PR?LCD_WRITEINDEX?SEEKFREE_18TFT
FF8198H   FF81ACH   000015H   BYTE   INSEG    CODE           ?PR?LCD_WRITEDATA?SEEKFREE_18TFT
FF81ADH   FF81C1H   000015H   BYTE   INSEG    CODE           ?PR?IPS200_WRITEINDEX?SEEKFREE_IPS200_SPI
FF81C2H   FF81D6H   000015H   BYTE   INSEG    CODE           ?PR?IPS200_WRITEDATA?SEEKFREE_IPS200_SPI
FF81D7H   FF81EAH   000014H   BYTE   INSEG    CODE           ?PR?SERVOINIT?MOTOR
FF81EBH   FF81FDH   000013H   BYTE   INSEG    CODE           ?PR?DL1A_SIMIIC_START?SEEKFREE_DL1A
FF81FEH   FF820FH   000012H   BYTE   INSEG    CODE           ?PR?PUTCHAR?BOARD
FF8210H   FF8221H   000012H   BYTE   INSEG    CODE           ?PR?SPI_MOSI?ZF_SPI
FF8222H   FF822AH   000009H   BYTE   INSEG    CODE           ?PR?ENCODERINITL?ENCODER
FF822BH   FF8232H   000008H   BYTE   INSEG    CODE           ?PR?INT1_ISR?ISR
FF8233H   FF823AH   000008H   BYTE   INSEG    CODE           ?PR?INT2_ISR?ISR
FF823BH   FF8242H   000008H   BYTE   INSEG    CODE           ?PR?INT3_ISR?ISR
FF8243H   FF824AH   000008H   BYTE   INSEG    CODE           ?PR?INT4_ISR?ISR
FF824BH   FF8252H   000008H   BYTE   INSEG    CODE           ?PR?TM0_ISR?ISR
FF8253H   FF825AH   000008H   BYTE   INSEG    CODE           ?PR?TM3_ISR?ISR
FF825BH   FF8262H   000008H   BYTE   INSEG    CODE           ?PR?TM4_ISR?ISR
FF8263H   FF8431H   0001CFH   BYTE   UNIT     HCONST         ?C_INITEDATA
FF8432H   FF8489H   000058H   BYTE   UNIT     HCONST         ?HC?ZF_PWM
FF848AH   FF84D4H   00004BH   BYTE   UNIT     HCONST         ?HC?SEEKFREE_IMU963RA
FF84D5H   FF8518H   000044H   BYTE   UNIT     HCONST         ?HC?MAIN
FF8519H   FF854CH   000034H   BYTE   UNIT     HCONST         ?HC?SEEKFREE_IMU660RA
L251 LINKER/LOCATER V4.66.93.0                                                        07/19/2023  21:09:12  PAGE 10


FF854DH   FF857FH   000033H   BYTE   UNIT     HCONST         ?HC?SEEKFREE_ICM20602
FF8580H   FF8599H   00001AH   BYTE   UNIT     HCONST         ?HC?CONTROL
FF859AH   FF85AFH   000016H   BYTE   UNIT     HCONST         ?HC?SEEKFREE_MPU6050
FF85B0H   FF85C2H   000013H   BYTE   UNIT     HCONST         ?HC?SEEKFREE_DL1A
FF85C3H   FF85CCH   00000AH   BYTE   UNIT     HCONST         ?HC?SEEKFREE_OLED
FF85CDH   FF85D2H   000006H   BYTE   UNIT     HCONST         ?HC?SEEKFREE_18TFT
FF85D3H   FF85D8H   000006H   BYTE   UNIT     HCONST         ?HC?SEEKFREE_IPS114_SPI
FF85D9H   FF85DEH   000006H   BYTE   UNIT     HCONST         ?HC?SEEKFREE_IPS200_SPI

* * * * * * * * *   R E M O V E D     S E G M E N T S   * * * * * * * *
   *DEL*:           000033H   BYTE   INSEG    CODE           ?PR?DELAY_US?ZF_DELAY
   *DEL*:           000020H   BYTE   INSEG    CODE           ?PR?IAP_SET_TPS?ZF_EEPROM
   *DEL*:           000018H   BYTE   INSEG    CODE           ?PR?EEPROM_TRIG?ZF_EEPROM
   *DEL*:           00001CH   BYTE   INSEG    CODE           ?PR?IAP_ERASE_PAGE?ZF_EEPROM
   *DEL*:           000004H   BYTE   INSEG    CODE           ?PR?IAP_IDLE?ZF_EEPROM
   *DEL*:           000060H   BYTE   INSEG    CODE           ?PR?IAP_READ_BYTES?ZF_EEPROM
   *DEL*:           000007H   BYTE   INSEG    CODE           ?PR?IAP_INIT?ZF_EEPROM
   *DEL*:           00005CH   BYTE   INSEG    CODE           ?PR?IAP_WRITE_BYTES?ZF_EEPROM
   *DEL*:           000012H   BYTE   INSEG    CODE           ?PR?IAP_GET_CMD_STATE?ZF_EEPROM
   *DEL*:           000066H   BYTE   INSEG    CODE           ?PR?EXIT_INIT?ZF_EXTI
   *DEL*:           000095H   BYTE   INSEG    CODE           ?PR?GPIO_PULL_SET?ZF_GPIO
   *DEL*:           0000B9H   BYTE   INSEG    CODE           ?PR?NVIC_SETPRIORITY?ZF_NVIC
   *DEL*:           0001ABH   BYTE   INSEG    CODE           ?PR?PWM_FREQ?ZF_PWM
   *DEL*:           000026H   BYTE   INSEG    CODE           ?PR?SPI_CHANGE_MODE?ZF_SPI
   *DEL*:           0000CCH   BYTE   INSEG    CODE           ?PR?SPI_CHANGE_PIN?ZF_SPI
   *DEL*:           000039H   BYTE   INSEG    CODE           ?PR?UART_PUTBUFF?ZF_UART
   *DEL*:           00002BH   BYTE   INSEG    CODE           ?PR?UART_PUTSTR?ZF_UART
   *DEL*:           000183H   BYTE   INSEG    CODE           ?PR?FIFO_READ_BUFFER?ZF_FIFO
   *DEL*:           000043H   BYTE   INSEG    CODE           ?PR?FIFO_CLEAR?ZF_FIFO
   *DEL*:           000070H   BYTE   INSEG    CODE           ?PR?FIFO_END_OFFSET?ZF_FIFO
   *DEL*:           000025H   BYTE   INSEG    CODE           ?PR?FIFO_USED?ZF_FIFO
   *DEL*:           00006EH   BYTE   INSEG    CODE           ?PR?FIFO_INIT?ZF_FIFO
   *DEL*:           0000CDH   BYTE   INSEG    CODE           ?PR?LCD_SHOWUINT16?SEEKFREE_18TFT
   *DEL*:           0000CEH   BYTE   INSEG    CODE           ?PR?LCD_SHOWINT32_SIMSPI?SEEKFREE_18TFT
   *DEL*:           000119H   BYTE   INSEG    CODE           ?PR?LCD_SHOWINT16_SIMSPI?SEEKFREE_18TFT
   *DEL*:           0000CEH   BYTE   INSEG    CODE           ?PR?LCD_SHOWINT32?SEEKFREE_18TFT
   *DEL*:           000119H   BYTE   INSEG    CODE           ?PR?LCD_SHOWINT16?SEEKFREE_18TFT
   *DEL*:           000057H   BYTE   INSEG    CODE           ?PR?LCD_CLEAR_SIMSPI?SEEKFREE_18TFT
   *DEL*:           000057H   BYTE   INSEG    CODE           ?PR?LCD_CLEAR?SEEKFREE_18TFT
   *DEL*:           00005DH   BYTE   INSEG    CODE           ?PR?LCD_SHOWSTR_SIMSPI?SEEKFREE_18TFT
   *DEL*:           00005DH   BYTE   INSEG    CODE           ?PR?LCD_SHOWSTR?SEEKFREE_18TFT
   *DEL*:           000055H   BYTE   INSEG    CODE           ?PR?LCD_WRITEDATA_16BIT_SIMSPI?SEEKFREE_18TFT
   *DEL*:           000064H   BYTE   INSEG    CODE           ?PR?LCD_SET_REGION_SIMSPI?SEEKFREE_18TFT
   *DEL*:           0001FDH   BYTE   INSEG    CODE           ?PR?LCD_INIT_SIMSPI?SEEKFREE_18TFT
   *DEL*:           0000ECH   BYTE   INSEG    CODE           ?PR?SHOWIMAGE?SEEKFREE_18TFT
   *DEL*:           000064H   BYTE   INSEG    CODE           ?PR?LCD_SET_REGION?SEEKFREE_18TFT
   *DEL*:           0001F3H   BYTE   INSEG    CODE           ?PR?LCD_INIT?SEEKFREE_18TFT
   *DEL*:           0000A9H   BYTE   INSEG    CODE           ?PR?LCD_SHOWUINT8_SIMSPI?SEEKFREE_18TFT
   *DEL*:           0000A9H   BYTE   INSEG    CODE           ?PR?LCD_SHOWUINT8?SEEKFREE_18TFT
   *DEL*:           0000EBH   BYTE   INSEG    CODE           ?PR?LCD_SHOWINT8_SIMSPI?SEEKFREE_18TFT
   *DEL*:           0000EBH   BYTE   INSEG    CODE           ?PR?LCD_SHOWINT8?SEEKFREE_18TFT
   *DEL*:           00002AH   BYTE   INSEG    CODE           ?PR?LCD_WRITEDATA_16BIT?SEEKFREE_18TFT
   *DEL*:           000145H   BYTE   INSEG    CODE           ?PR?LCD_SHOWFLOAT_SIMSPI?SEEKFREE_18TFT
   *DEL*:           000023H   BYTE   INSEG    CODE           ?PR?LCD_DRAWPOINT_SIMSPI?SEEKFREE_18TFT
   *DEL*:           000145H   BYTE   INSEG    CODE           ?PR?LCD_SHOWFLOAT?SEEKFREE_18TFT
   *DEL*:           000023H   BYTE   INSEG    CODE           ?PR?LCD_DRAWPOINT?SEEKFREE_18TFT
   *DEL*:           0000BFH   BYTE   INSEG    CODE           ?PR?LCD_SHOWCHAR_SIMSPI?SEEKFREE_18TFT
   *DEL*:           0000BFH   BYTE   INSEG    CODE           ?PR?LCD_SHOWCHAR?SEEKFREE_18TFT
   *DEL*:           0000CDH   BYTE   INSEG    CODE           ?PR?LCD_SHOWUINT16_SIMSPI?SEEKFREE_18TFT
   *DEL*:           00002EH   BYTE   INSEG    CODE           ?PR?BLUETOOTH_CH9141_READ_BUFF?SEEKFREE_BLUETOOTH_CH9141
   *DEL*:           0000CCH   BYTE   INSEG    CODE           ?PR?BLUETOOTH_CH9141_SEND_BUFF?SEEKFREE_BLUETOOTH_CH9141
   *DEL*:           00003CH   BYTE   INSEG    CODE           ?PR?BLUETOOTH_CH9141_INIT?SEEKFREE_BLUETOOTH_CH9141
   *DEL*:           00003EH   BYTE   INSEG    CODE           ?PR?DL1A_SET_SIGNAL_RATE_LIMIT?SEEKFREE_DL1A
   *DEL*:           000195H   BYTE   INSEG    CODE           ?PR?DL1A_GET_SPAD_INFO?SEEKFREE_DL1A
   *DEL*:           0000ABH   BYTE   INSEG    CODE           ?PR?DL1A_PERFORM_SINGLE_REF_CALIBRATION?SEEKFREE_DL1A
L251 LINKER/LOCATER V4.66.93.0                                                        07/19/2023  21:09:12  PAGE 11


   *DEL*:           0000B6H   BYTE   INSEG    CODE           ?PR?DL1A_GET_MEASUREMENT_TIMING_BUDGET?SEEKFREE_DL1A
   *DEL*:           00003BH   BYTE   INSEG    CODE           ?PR?DL1A_SIMIIC_READ_REG?SEEKFREE_DL1A
   *DEL*:           000149H   BYTE   INSEG    CODE           ?PR?DL1A_SET_MEASUREMENT_TIMING_BUDGET?SEEKFREE_DL1A
   *DEL*:           0006AEH   BYTE   INSEG    CODE           ?PR?DL1A_INIT?SEEKFREE_DL1A
   *DEL*:           00001EH   BYTE   INSEG    CODE           ?PR?ICM20602_READ_REGISTER?SEEKFREE_ICM20602
   *DEL*:           00008DH   BYTE   INSEG    CODE           ?PR?ICM20602_GYRO_TRANSITION?SEEKFREE_ICM20602
   *DEL*:           00001AH   BYTE   INSEG    CODE           ?PR?ICM20602_WRITE_REGISTER?SEEKFREE_ICM20602
   *DEL*:           00004EH   BYTE   INSEG    CODE           ?PR?ICM20602_SELF_CHECK?SEEKFREE_ICM20602
   *DEL*:           000051H   BYTE   INSEG    CODE           ?PR?ICM20602_SIMSPI_R_REG_BYTES?SEEKFREE_ICM20602
   *DEL*:           000027H   BYTE   INSEG    CODE           ?PR?ICM20602_SIMSPI_R_REG_BYTE?SEEKFREE_ICM20602
   *DEL*:           00001BH   BYTE   INSEG    CODE           ?PR?ICM20602_SIMSPI_W_REG_BYTE?SEEKFREE_ICM20602
   *DEL*:           0000C2H   BYTE   INSEG    CODE           ?PR?ICM20602_INIT?SEEKFREE_ICM20602
   *DEL*:           000050H   BYTE   INSEG    CODE           ?PR?ICM20602_GET_ACC?SEEKFREE_ICM20602
   *DEL*:           000089H   BYTE   INSEG    CODE           ?PR?ICM20602_ACC_TRANSITION?SEEKFREE_ICM20602
   *DEL*:           000026H   BYTE   INSEG    CODE           ?PR?ICM20602_READ_REGISTERS?SEEKFREE_ICM20602
   *DEL*:           000050H   BYTE   INSEG    CODE           ?PR?ICM20602_GET_GYRO?SEEKFREE_ICM20602
   *DEL*:           000022H   BYTE   INSEG    CODE           ?PR?IMU660RA_WRITE_REGISTERS?SEEKFREE_IMU660RA
   *DEL*:           0000A8H   BYTE   INSEG    CODE           ?PR?IMU660RA_GYRO_TRANSITION?SEEKFREE_IMU660RA
   *DEL*:           00001AH   BYTE   INSEG    CODE           ?PR?IMU660RA_WRITE_REGISTER?SEEKFREE_IMU660RA
   *DEL*:           00004BH   BYTE   INSEG    CODE           ?PR?IMU660RA_SELF_CHECK?SEEKFREE_IMU660RA
   *DEL*:           00003EH   BYTE   INSEG    CODE           ?PR?IMU660RA_SIMSPI_W_REG_BYTES?SEEKFREE_IMU660RA
   *DEL*:           00001BH   BYTE   INSEG    CODE           ?PR?IMU660RA_SIMSPI_W_REG_BYTE?SEEKFREE_IMU660RA
   *DEL*:           0000AEH   BYTE   INSEG    CODE           ?PR?IMU660RA_INIT?SEEKFREE_IMU660RA
   *DEL*:           000050H   BYTE   INSEG    CODE           ?PR?IMU660RA_GET_ACC?SEEKFREE_IMU660RA
   *DEL*:           00007CH   BYTE   INSEG    CODE           ?PR?IMU660RA_ACC_TRANSITION?SEEKFREE_IMU660RA
   *DEL*:           00008DH   BYTE   INSEG    CODE           ?PR?IMU963RA_ACC_TRANSITION?SEEKFREE_IMU963RA
   *DEL*:           000050H   BYTE   INSEG    CODE           ?PR?IMU963RA_GET_GYRO?SEEKFREE_IMU963RA
   *DEL*:           000051H   BYTE   INSEG    CODE           ?PR?IMU963RA_MAG_TRANSITION?SEEKFREE_IMU963RA
   *DEL*:           0000D2H   BYTE   INSEG    CODE           ?PR?IMU963RA_GYRO_TRANSITION?SEEKFREE_IMU963RA
   *DEL*:           00006CH   BYTE   INSEG    CODE           ?PR?IMU963RA_READ_MAG_REGISTER?SEEKFREE_IMU963RA
   *DEL*:           00003AH   BYTE   INSEG    CODE           ?PR?IMU963RA_CONNECT_MAG?SEEKFREE_IMU963RA
   *DEL*:           000026H   BYTE   INSEG    CODE           ?PR?IMU963RA_READ_ACC_GYRO_REGISTERS?SEEKFREE_IMU963RA
   *DEL*:           00007FH   BYTE   INSEG    CODE           ?PR?IMU963RA_WRITE_MAG_REGISTER?SEEKFREE_IMU963RA
   *DEL*:           000023H   BYTE   INSEG    CODE           ?PR?IMU963RA_READ_ACC_GYRO_REGISTER?SEEKFREE_IMU963RA
   *DEL*:           00004BH   BYTE   INSEG    CODE           ?PR?IMU963RA_SIMSPI_R_REG_BYTES?SEEKFREE_IMU963RA
   *DEL*:           00002DH   BYTE   INSEG    CODE           ?PR?IMU963RA_SIMSPI_R_REG_BYTE?SEEKFREE_IMU963RA
   *DEL*:           000051H   BYTE   INSEG    CODE           ?PR?IMU963RA_MAG_SELF_CHECK?SEEKFREE_IMU963RA
   *DEL*:           00001AH   BYTE   INSEG    CODE           ?PR?IMU963RA_WRITE_ACC_GYRO_REGISTER?SEEKFREE_IMU963RA
   *DEL*:           000021H   BYTE   INSEG    CODE           ?PR?IMU963RA_SIMSPI_W_REG_BYTE?SEEKFREE_IMU963RA
   *DEL*:           00011DH   BYTE   INSEG    CODE           ?PR?IMU963RA_INIT?SEEKFREE_IMU963RA
   *DEL*:           00004EH   BYTE   INSEG    CODE           ?PR?IMU963RA_ACC_GYRO_SELF_CHECK?SEEKFREE_IMU963RA
   *DEL*:           000050H   BYTE   INSEG    CODE           ?PR?IMU963RA_GET_ACC?SEEKFREE_IMU963RA
   *DEL*:           00006BH   BYTE   INSEG    CODE           ?PR?IMU963RA_GET_MAG?SEEKFREE_IMU963RA
   *DEL*:           0000A9H   BYTE   INSEG    CODE           ?PR?IPS114_SHOWUINT8_SIMSPI?SEEKFREE_IPS114_SPI
   *DEL*:           0000A5H   BYTE   INSEG    CODE           ?PR?IPS114_SHOWUINT8?SEEKFREE_IPS114_SPI
   *DEL*:           0000EBH   BYTE   INSEG    CODE           ?PR?IPS114_SHOWINT8_SIMSPI?SEEKFREE_IPS114_SPI
   *DEL*:           0000E7H   BYTE   INSEG    CODE           ?PR?IPS114_SHOWINT8?SEEKFREE_IPS114_SPI
   *DEL*:           00002AH   BYTE   INSEG    CODE           ?PR?IPS114_WRITEDATA_16BIT?SEEKFREE_IPS114_SPI
   *DEL*:           000145H   BYTE   INSEG    CODE           ?PR?IPS114_SHOWFLOAT_SIMSPI?SEEKFREE_IPS114_SPI
   *DEL*:           000023H   BYTE   INSEG    CODE           ?PR?IPS114_DRAWPOINT_SIMSPI?SEEKFREE_IPS114_SPI
   *DEL*:           000145H   BYTE   INSEG    CODE           ?PR?IPS114_SHOWFLOAT?SEEKFREE_IPS114_SPI
   *DEL*:           000023H   BYTE   INSEG    CODE           ?PR?IPS114_DRAWPOINT?SEEKFREE_IPS114_SPI
   *DEL*:           0000BFH   BYTE   INSEG    CODE           ?PR?IPS114_SHOWCHAR_SIMSPI?SEEKFREE_IPS114_SPI
   *DEL*:           0000BFH   BYTE   INSEG    CODE           ?PR?IPS114_SHOWCHAR?SEEKFREE_IPS114_SPI
   *DEL*:           0000CDH   BYTE   INSEG    CODE           ?PR?IPS114_SHOWUINT16_SIMSPI?SEEKFREE_IPS114_SPI
   *DEL*:           0000CDH   BYTE   INSEG    CODE           ?PR?IPS114_SHOWUINT16?SEEKFREE_IPS114_SPI
   *DEL*:           0000CEH   BYTE   INSEG    CODE           ?PR?IPS114_SHOWINT32_SIMSPI?SEEKFREE_IPS114_SPI
   *DEL*:           000119H   BYTE   INSEG    CODE           ?PR?IPS114_SHOWINT16_SIMSPI?SEEKFREE_IPS114_SPI
   *DEL*:           0000CEH   BYTE   INSEG    CODE           ?PR?IPS114_SHOWINT32?SEEKFREE_IPS114_SPI
   *DEL*:           000115H   BYTE   INSEG    CODE           ?PR?IPS114_SHOWINT16?SEEKFREE_IPS114_SPI
   *DEL*:           00005FH   BYTE   INSEG    CODE           ?PR?IPS114_CLEAR_SIMSPI?SEEKFREE_IPS114_SPI
   *DEL*:           00005FH   BYTE   INSEG    CODE           ?PR?IPS114_CLEAR?SEEKFREE_IPS114_SPI
   *DEL*:           000055H   BYTE   INSEG    CODE           ?PR?IPS114_WRITEDATAI_16BIT_SIMSPI?SEEKFREE_IPS114_SPI
   *DEL*:           00005DH   BYTE   INSEG    CODE           ?PR?IPS114_SHOWSTR_SIMSPI?SEEKFREE_IPS114_SPI
   *DEL*:           00005DH   BYTE   INSEG    CODE           ?PR?IPS114_SHOWSTR?SEEKFREE_IPS114_SPI
L251 LINKER/LOCATER V4.66.93.0                                                        07/19/2023  21:09:12  PAGE 12


   *DEL*:           00004CH   BYTE   INSEG    CODE           ?PR?IPS114_WRITEINDEX_SIMSPI?SEEKFREE_IPS114_SPI
   *DEL*:           00004CH   BYTE   INSEG    CODE           ?PR?IPS114_WRITEDATA_SIMSPI?SEEKFREE_IPS114_SPI
   *DEL*:           000015H   BYTE   INSEG    CODE           ?PR?IPS114_WRITEINDEX?SEEKFREE_IPS114_SPI
   *DEL*:           000015H   BYTE   INSEG    CODE           ?PR?IPS114_WRITEDATA?SEEKFREE_IPS114_SPI
   *DEL*:           000054H   BYTE   INSEG    CODE           ?PR?IPS114_SET_REGION_SIMSPI?SEEKFREE_IPS114_SPI
   *DEL*:           000154H   BYTE   INSEG    CODE           ?PR?IPS114_INIT_SIMSPI?SEEKFREE_IPS114_SPI
   *DEL*:           000054H   BYTE   INSEG    CODE           ?PR?IPS114_SET_REGION?SEEKFREE_IPS114_SPI
   *DEL*:           000174H   BYTE   INSEG    CODE           ?PR?IPS114_INIT?SEEKFREE_IPS114_SPI
   *DEL*:           000013H   BYTE   INSEG    CODE           ?PR?MPU6050_SIMIIC_START?SEEKFREE_MPU6050
   *DEL*:           00006CH   BYTE   INSEG    CODE           ?PR?MPU6050_SIMIIC_READ_REGS?SEEKFREE_MPU6050
   *DEL*:           00003BH   BYTE   INSEG    CODE           ?PR?MPU6050_SIMIIC_READ_REG?SEEKFREE_MPU6050
   *DEL*:           000016H   BYTE   INSEG    CODE           ?PR?MPU6050_SIMIIC_STOP?SEEKFREE_MPU6050
   *DEL*:           00002AH   BYTE   INSEG    CODE           ?PR?MPU6050_SIMIIC_WRITE_REG?SEEKFREE_MPU6050
   *DEL*:           000060H   BYTE   INSEG    CODE           ?PR?MPU6050_INIT?SEEKFREE_MPU6050
   *DEL*:           000033H   BYTE   INSEG    CODE           ?PR?MPU6050_SELF1_CHECK?SEEKFREE_MPU6050
   *DEL*:           000028H   BYTE   INSEG    CODE           ?PR?MPU6050_SIMIIC_SENDACK?SEEKFREE_MPU6050
   *DEL*:           00006AH   BYTE   INSEG    CODE           ?PR?MPU6050_READ_CH?SEEKFREE_MPU6050
   *DEL*:           000049H   BYTE   INSEG    CODE           ?PR?MPU6050_SEND_CH?SEEKFREE_MPU6050
   *DEL*:           000052H   BYTE   INSEG    CODE           ?PR?MPU6050_GET_GYRO?SEEKFREE_MPU6050
   *DEL*:           000021H   BYTE   INSEG    CODE           ?PR?MPU6050_SCCB_WAITACK?SEEKFREE_MPU6050
   *DEL*:           000052H   BYTE   INSEG    CODE           ?PR?MPU6050_GET_ACCDATA?SEEKFREE_MPU6050
   *DEL*:           00001DH   BYTE   INSEG    CODE           ?PR?MPU6050_SIMIIC_DELAY?SEEKFREE_MPU6050
   *DEL*:           000047H   BYTE   INSEG    CODE           ?PR?OLED_PUTPIXEL?SEEKFREE_OLED
   *DEL*:           00006FH   BYTE   INSEG    CODE           ?PR?OLED_HEXASCII_SPI?SEEKFREE_OLED
   *DEL*:           000035H   BYTE   INSEG    CODE           ?PR?OLED_SET_POS?SEEKFREE_OLED
   *DEL*:           00044DH   BYTE   INSEG    CODE           ?PR?OLED_DIS_BMP_SPI?SEEKFREE_OLED
   *DEL*:           000145H   BYTE   INSEG    CODE           ?PR?OLED_PRINTF_FLOAT?SEEKFREE_OLED
   *DEL*:           000121H   BYTE   INSEG    CODE           ?PR?OLED_P8X16STR_SPI?SEEKFREE_OLED
   *DEL*:           000041H   BYTE   INSEG    CODE           ?PR?OLED_CLRPIXEL_SPI?SEEKFREE_OLED
   *DEL*:           00004CH   BYTE   INSEG    CODE           ?PR?OLED_WRCMD?SEEKFREE_OLED
   *DEL*:           0000C0H   BYTE   INSEG    CODE           ?PR?OLED_PRINT_CHINESE_SPI?SEEKFREE_OLED
   *DEL*:           00004CH   BYTE   INSEG    CODE           ?PR?OLED_WRDAT?SEEKFREE_OLED
   *DEL*:           00005DH   BYTE   INSEG    CODE           ?PR?OLED_FILL?SEEKFREE_OLED
   *DEL*:           0000CEH   BYTE   INSEG    CODE           ?PR?OLED_PRINTF_INT32?SEEKFREE_OLED
   *DEL*:           000027H   BYTE   INSEG    CODE           ?PR?OLED_UINT16?SEEKFREE_OLED
   *DEL*:           000048H   BYTE   INSEG    CODE           ?PR?OLED_PUTPIXEL_SPI?SEEKFREE_OLED
   *DEL*:           000036H   BYTE   INSEG    CODE           ?PR?OLED_SET_POS_SPI?SEEKFREE_OLED
   *DEL*:           0000D1H   BYTE   INSEG    CODE           ?PR?OLED_P6X8STR?SEEKFREE_OLED
   *DEL*:           000073H   BYTE   INSEG    CODE           ?PR?OLED_INT16?SEEKFREE_OLED
   *DEL*:           0000A8H   BYTE   INSEG    CODE           ?PR?OLED_INIT?SEEKFREE_OLED
   *DEL*:           000145H   BYTE   INSEG    CODE           ?PR?OLED_PRINTF_FLOAT_SPI?SEEKFREE_OLED
   *DEL*:           000015H   BYTE   INSEG    CODE           ?PR?OLED_WRCMD_SPI?SEEKFREE_OLED
   *DEL*:           000015H   BYTE   INSEG    CODE           ?PR?OLED_WRDAT_SPI?SEEKFREE_OLED
   *DEL*:           00006FH   BYTE   INSEG    CODE           ?PR?OLED_HEXASCII?SEEKFREE_OLED
   *DEL*:           00005DH   BYTE   INSEG    CODE           ?PR?OLED_FILL_SPI?SEEKFREE_OLED
   *DEL*:           0000CEH   BYTE   INSEG    CODE           ?PR?OLED_PRINTF_INT32_SPI?SEEKFREE_OLED
   *DEL*:           000027H   BYTE   INSEG    CODE           ?PR?OLED_UINT16_SPI?SEEKFREE_OLED
   *DEL*:           0000D1H   BYTE   INSEG    CODE           ?PR?OLED_P6X8STR_SPI?SEEKFREE_OLED
   *DEL*:           000073H   BYTE   INSEG    CODE           ?PR?OLED_INT16_SPI?SEEKFREE_OLED
   *DEL*:           00046AH   BYTE   INSEG    CODE           ?PR?OLED_DIS_BMP?SEEKFREE_OLED
   *DEL*:           0000C5H   BYTE   INSEG    CODE           ?PR?OLED_INIT_SPI?SEEKFREE_OLED
   *DEL*:           000121H   BYTE   INSEG    CODE           ?PR?OLED_P8X16STR?SEEKFREE_OLED
   *DEL*:           000040H   BYTE   INSEG    CODE           ?PR?OLED_CLRPIXEL?SEEKFREE_OLED
   *DEL*:           0000C0H   BYTE   INSEG    CODE           ?PR?OLED_PRINT_CHINESE?SEEKFREE_OLED
   *DEL*:           00009AH   BYTE   INSEG    CODE           ?PR?CRC_CHECK?SEEKFREE_VIRSCO
   *DEL*:           0000DCH   BYTE   INSEG    CODE           ?PR?DATA_CONVERSION?SEEKFREE_VIRSCO
   *DEL*:           00002EH   BYTE   INSEG    CODE           ?PR?WIRELESS_UART_READ_BUFF?SEEKFREE_WIRELESS
   *DEL*:           000073H   BYTE   INSEG    CODE           ?PR?WIRELESS_UART_SEND_BUFF?SEEKFREE_WIRELESS
   *DEL*:           00003EH   BYTE   INSEG    CODE           ?PR?WIRELESS_UART_INIT?SEEKFREE_WIRELESS
   *DEL*:           00002EH   BYTE   INSEG    CODE           ?PR?WIRELESS_CH573_READ_BUFF?SEEKFREE_WIRELESS_CH573
   *DEL*:           000073H   BYTE   INSEG    CODE           ?PR?WIRELESS_CH573_SEND_BUFF?SEEKFREE_WIRELESS_CH573
   *DEL*:           00003EH   BYTE   INSEG    CODE           ?PR?WIRELESS_CH573_INIT?SEEKFREE_WIRELESS_CH573
   *DEL*:           0000EBH   BYTE   INSEG    CODE           ?PR?IPS200_SHOWINT8_SIMSPI?SEEKFREE_IPS200_SPI
   *DEL*:           0000E7H   BYTE   INSEG    CODE           ?PR?IPS200_SHOWINT8?SEEKFREE_IPS200_SPI
   *DEL*:           000145H   BYTE   INSEG    CODE           ?PR?IPS200_SHOWFLOAT_SIMSPI?SEEKFREE_IPS200_SPI
L251 LINKER/LOCATER V4.66.93.0                                                        07/19/2023  21:09:12  PAGE 13


   *DEL*:           000023H   BYTE   INSEG    CODE           ?PR?IPS200_DRAWPOINT_SIMSPI?SEEKFREE_IPS200_SPI
   *DEL*:           000023H   BYTE   INSEG    CODE           ?PR?IPS200_DRAWPOINT?SEEKFREE_IPS200_SPI
   *DEL*:           0000BFH   BYTE   INSEG    CODE           ?PR?IPS200_SHOWCHAR_SIMSPI?SEEKFREE_IPS200_SPI
   *DEL*:           0000CDH   BYTE   INSEG    CODE           ?PR?IPS200_SHOWUINT16_SIMSPI?SEEKFREE_IPS200_SPI
   *DEL*:           0000CDH   BYTE   INSEG    CODE           ?PR?IPS200_SHOWUINT16?SEEKFREE_IPS200_SPI
   *DEL*:           0000CEH   BYTE   INSEG    CODE           ?PR?IPS200_SHOWINT32_SIMSPI?SEEKFREE_IPS200_SPI
   *DEL*:           000119H   BYTE   INSEG    CODE           ?PR?IPS200_SHOWINT16_SIMSPI?SEEKFREE_IPS200_SPI
   *DEL*:           0000CEH   BYTE   INSEG    CODE           ?PR?IPS200_SHOWINT32?SEEKFREE_IPS200_SPI
   *DEL*:           00005FH   BYTE   INSEG    CODE           ?PR?IPS200_CLEAR_SIMSPI?SEEKFREE_IPS200_SPI
   *DEL*:           000055H   BYTE   INSEG    CODE           ?PR?IPS200_WRITEDATAI_16BIT_SIMSPI?SEEKFREE_IPS200_SPI
   *DEL*:           00005DH   BYTE   INSEG    CODE           ?PR?IPS200_SHOWSTR_SIMSPI?SEEKFREE_IPS200_SPI
   *DEL*:           00004CH   BYTE   INSEG    CODE           ?PR?IPS200_WRITEINDEX_SIMSPI?SEEKFREE_IPS200_SPI
   *DEL*:           00004CH   BYTE   INSEG    CODE           ?PR?IPS200_WRITEDATA_SIMSPI?SEEKFREE_IPS200_SPI
   *DEL*:           00003CH   BYTE   INSEG    CODE           ?PR?IPS200_SET_REGION_SIMSPI?SEEKFREE_IPS200_SPI
   *DEL*:           000153H   BYTE   INSEG    CODE           ?PR?IPS200_INIT_SIMSPI?SEEKFREE_IPS200_SPI
   *DEL*:           0000A9H   BYTE   INSEG    CODE           ?PR?IPS200_SHOWUINT8_SIMSPI?SEEKFREE_IPS200_SPI
   *DEL*:           000008H   BYTE   INSEG    CODE           ?PR?SERVOCORRECTION?CONTROL
   *DEL*:           000070H   BYTE   INSEG    CODE           ?PR?FASTSQRT?CONTROL
   *DEL*:           000017H   BYTE   INSEG    CODE           ?PR?CIRCLE_READY?CONTROL
   *DEL*:           00000FH   BYTE   INSEG    CODE           ?PR?TOFSHOWDISTANCE?TOF
   *DEL*:           00001BH   BYTE   INSEG    CODE           ?PR?TOFINIT?TOF
   *DEL*:           00001BH   BYTE   INSEG    CODE           ?PR?IMU660INIT?IMU660
   *DEL*:           000028H   BYTE   UNIT     EDATA          ?ED?PRINTF
   *DEL*:           00001AH   BYTE   INSEG    CODE           ?PR?MEMSET?_?MEMSET



OVERLAY MAP OF MODULE:   .\Out_File\SEEKFREE (board)


FUNCTION/MODULE                                BIT_GROUP   DATA_GROUP 
--> CALLED FUNCTION/MODULE                    START  STOP  START  STOP
======================================================================
UART1_Isr/isr                                 ----- -----  ----- -----

*** NEW ROOT ********************************

UART2_Isr/isr                                 ----- -----  ----- -----

*** NEW ROOT ********************************

UART3_Isr/isr                                 ----- -----  ----- -----

*** NEW ROOT ********************************

UART4_Isr/isr                                 ----- -----  ----- -----
  +--> wireless_uart_callback/SEEKFREE_WIRELESS
  +--> bluetooth_ch9141_uart_callback/SEEKFREE_BLUETOOTH_CH9141
  +--> wireless_ch573_callback/SEEKFREE_WIRELESS_CH573

wireless_uart_callback/SEEKFREE_WIRELESS      ----- -----  ----- -----
  +--> fifo_write_buffer/zf_fifo

fifo_write_buffer/zf_fifo                     ----- -----  ----- -----
  +--> memcpy?_/memcpy
  +--> fifo_head_offset/zf_fifo

memcpy?_/memcpy                               ----- -----  ----- -----

fifo_head_offset/zf_fifo                      ----- -----  ----- -----

bluetooth_ch9141_uart_callback/SEEKFREE_+     ----- -----  ----- -----
... BLUETOOTH_CH9141
  +--> fifo_write_buffer/zf_fifo

L251 LINKER/LOCATER V4.66.93.0                                                        07/19/2023  21:09:12  PAGE 14


wireless_ch573_callback/SEEKFREE_WIRELES+     ----- -----  ----- -----
... S_CH573
  +--> fifo_write_buffer/zf_fifo

*** NEW ROOT ********************************

INT0_Isr/isr                                  ----- -----  ----- -----

*** NEW ROOT ********************************

INT1_Isr/isr                                  ----- -----  ----- -----

*** NEW ROOT ********************************

INT2_Isr/isr                                  ----- -----  ----- -----

*** NEW ROOT ********************************

INT3_Isr/isr                                  ----- -----  ----- -----

*** NEW ROOT ********************************

INT4_Isr/isr                                  ----- -----  ----- -----

*** NEW ROOT ********************************

TM0_Isr/isr                                   ----- -----  ----- -----

*** NEW ROOT ********************************

TM1_Isr/isr                                   ----- -----  ----- -----

*** NEW ROOT ********************************

TM2_Isr/isr                                   ----- -----  ----- -----

*** NEW ROOT ********************************

TM3_Isr/isr                                   ----- -----  ----- -----

*** NEW ROOT ********************************

TM4_Isr/isr                                   ----- -----  ----- -----

*** NEW ROOT ********************************

?C_C51STARTUP                                 ----- -----  ----- -----

*** NEW ROOT ********************************

?C_C51STARTUP?3                               ----- -----  ----- -----
  +--> main/main

main/main                                     ----- -----  ----- -----
  +--> board_init/board
  +--> delay_ms/zf_delay
  +--> ServoInit/motor
  +--> ips200_init/SEEKFREE_IPS200_SPI
  +--> ctimer_count_init/zf_tim
  +--> adc_init/zf_adc
  +--> pit_timer_ms/zf_tim
  +--> MotorInit/motor
  +--> AdcInit/My_ADC
  +--> EncoderInitL/encoder
  +--> EncoderInitR/encoder
L251 LINKER/LOCATER V4.66.93.0                                                        07/19/2023  21:09:12  PAGE 15


  +--> EnableGlobalIRQ/board
  +--> ReadEncoderL/encoder
  +--> ReadEncoderR/encoder
  +--> SpeedComputerL/control
  +--> SpeedComputerR/control
  +--> PID_motor/control
  +--> cross_judge/control
  +--> ServoControl/motor
  +--> cross_control/control
  +--> circle_judge/control
  +--> PidControlServo/control
  +--> imu660ra_get_gyro/SEEKFREE_IMU660RA
  +--> fabs/control
  +--> circle_control/control
  +--> showoled/main
  +--> dl1a_get_distance/SEEKFREE_DL1A
  +--> tof_get/control
  +--> ramp_judge/control
  +--> ramp_control/control

board_init/board                              ----- -----  ----- -----
  +--> set_clk/board
  +--> delay_init/zf_delay
  +--> uart_init/zf_uart
  +--> EnableGlobalIRQ/board

set_clk/board                                 ----- -----  ----- -----

delay_init/zf_delay                           ----- -----  ----- -----
  +--> ?C?SLDIV/?C?SLDIV

?C?SLDIV/?C?SLDIV                             ----- -----  ----- -----
  +--> ?C?ULIDIV/?C?ULDIV

?C?ULIDIV/?C?ULDIV                            ----- -----  ----- -----

uart_init/zf_uart                             ----- -----  ----- -----
  +--> ?C?ULIDIV/?C?ULDIV

EnableGlobalIRQ/board                         ----- -----  ----- -----

delay_ms/zf_delay                             ----- -----  ----- -----

ServoInit/motor                               ----- -----  ----- -----
  +--> pwm_init/zf_pwm

pwm_init/zf_pwm                               ----- -----  ----- -----
  +--> pwm_set_gpio/zf_pwm
  +--> ?C?ULIDIV/?C?ULDIV

pwm_set_gpio/zf_pwm                           ----- -----  ----- -----
  +--> gpio_mode/zf_gpio

gpio_mode/zf_gpio                             ----- -----  ----- -----

ips200_init/SEEKFREE_IPS200_SPI               ----- -----  ----- -----
  +--> spi_init/zf_spi
  +--> delay_ms/zf_delay
  +--> ips200_writeIndex/SEEKFREE_IPS200_SPI
  +--> ips200_writeData/SEEKFREE_IPS200_SPI
  +--> ips200_clear/SEEKFREE_IPS200_SPI

spi_init/zf_spi                               ----- -----  ----- -----
  +--> gpio_mode/zf_gpio

L251 LINKER/LOCATER V4.66.93.0                                                        07/19/2023  21:09:12  PAGE 16


ips200_writeIndex/SEEKFREE_IPS200_SPI         ----- -----  ----- -----
  +--> spi_mosi/zf_spi

spi_mosi/zf_spi                               ----- -----  ----- -----

ips200_writeData/SEEKFREE_IPS200_SPI          ----- -----  ----- -----
  +--> spi_mosi/zf_spi

ips200_clear/SEEKFREE_IPS200_SPI              ----- -----  ----- -----
  +--> ips200_set_region/SEEKFREE_IPS200_SPI
  +--> ips200_writedata_16bit/SEEKFREE_IPS200_SPI

ips200_set_region/SEEKFREE_IPS200_SPI         ----- -----  ----- -----
  +--> ips200_writeIndex/SEEKFREE_IPS200_SPI
  +--> ips200_writedata_16bit/SEEKFREE_IPS200_SPI

ips200_writedata_16bit/SEEKFREE_IPS200_S+     ----- -----  ----- -----
... PI
  +--> spi_mosi/zf_spi

ctimer_count_init/zf_tim                      ----- -----  ----- -----

adc_init/zf_adc                               ----- -----  ----- -----

pit_timer_ms/zf_tim                           ----- -----  ----- -----
  +--> ?C?SLDIV/?C?SLDIV

MotorInit/motor                               ----- -----  ----- -----
  +--> pwm_init/zf_pwm

AdcInit/My_ADC                                ----- -----  ----- -----
  +--> adc_init/zf_adc

EncoderInitL/encoder                          ----- -----  ----- -----
  +--> ctimer_count_init/zf_tim

EncoderInitR/encoder                          ----- -----  ----- -----
  +--> ctimer_count_init/zf_tim

ReadEncoderL/encoder                          ----- -----  ----- -----
  +--> DisableGlobalIRQ/board
  +--> ctimer_count_init/zf_tim
  +--> EnableGlobalIRQ/board
  +--> ctimer_count_read/zf_tim
  +--> ctimer_count_clean/zf_tim

DisableGlobalIRQ/board                        ----- -----  ----- -----

ctimer_count_read/zf_tim                      ----- -----  ----- -----

ctimer_count_clean/zf_tim                     ----- -----  ----- -----

ReadEncoderR/encoder                          ----- -----  ----- -----
  +--> DisableGlobalIRQ/board
  +--> ctimer_count_init/zf_tim
  +--> ctimer_count_read/zf_tim
  +--> ctimer_count_clean/zf_tim
  +--> EnableGlobalIRQ/board

SpeedComputerL/control                        ----- -----  ----- -----

SpeedComputerR/control                        ----- -----  ----- -----

PID_motor/control                             ----- -----  ----- -----
  +--> direction/control
L251 LINKER/LOCATER V4.66.93.0                                                        07/19/2023  21:09:12  PAGE 17


  +--> MotorControlL/motor
  +--> MotorControlR/motor

direction/control                             ----- -----  ----- -----
  +--> AdcRead/My_ADC
  +--> fabs/control

AdcRead/My_ADC                                ----- -----  ----- -----
  +--> adc_once/zf_adc

adc_once/zf_adc                               ----- -----  ----- -----

fabs/control                                  ----- -----  ----- -----

MotorControlL/motor                           ----- -----  ----- -----
  +--> pwm_duty/zf_pwm

pwm_duty/zf_pwm                               ----- -----  ----- -----

MotorControlR/motor                           ----- -----  ----- -----
  +--> pwm_duty/zf_pwm

cross_judge/control                           ----- -----  ----- -----

ServoControl/motor                            ----- -----  ----- -----
  +--> pwm_duty/zf_pwm

cross_control/control                         ----- -----  ----- -----
  +--> direction_cross/control
  +--> ComputerADC/control
  +--> ServoControl/motor

direction_cross/control                       ----- -----  ----- -----
  +--> AdcRead/My_ADC

ComputerADC/control                           ----- -----  ----- -----

circle_judge/control                          ----- -----  ----- -----

PidControlServo/control                       ----- -----  ----- -----
  +--> direction/control
  +--> ComputerADC/control
  +--> fabs/control
  +--> ServoControl/motor

imu660ra_get_gyro/SEEKFREE_IMU660RA           ----- -----  ----- -----
  +--> imu660ra_read_registers/SEEKFREE_IMU660RA

imu660ra_read_registers/SEEKFREE_IMU660R+     ----- -----  ----- -----
... A
  +--> imu660ra_simspi_r_reg_bytes/SEEKFREE_IMU660RA

imu660ra_simspi_r_reg_bytes/SEEKFREE_IMU+     ----- -----  ----- -----
... 660RA
  +--> imu660ra_simspi_wr_byte/SEEKFREE_IMU660RA

imu660ra_simspi_wr_byte/SEEKFREE_IMU660R+     ----- -----  ----- -----
... A

circle_control/control                        ----- -----  ----- -----
  +--> direction_cir/control
  +--> ComputerADC/control
  +--> ServoControl/motor

direction_cir/control                         ----- -----  ----- -----
L251 LINKER/LOCATER V4.66.93.0                                                        07/19/2023  21:09:12  PAGE 18


  +--> AdcRead/My_ADC

showoled/main                                 ----- -----  ----- -----
  +--> ips200_showstr/SEEKFREE_IPS200_SPI
  +--> ips200_showfloat/SEEKFREE_IPS200_SPI
  +--> ips200_showint16/SEEKFREE_IPS200_SPI
  +--> circle_judge/control
  +--> ips200_showuint8/SEEKFREE_IPS200_SPI
  +--> direction/control

ips200_showstr/SEEKFREE_IPS200_SPI            ----- -----  ----- -----
  +--> ips200_showchar/SEEKFREE_IPS200_SPI

ips200_showchar/SEEKFREE_IPS200_SPI           ----- -----  ----- -----
  +--> ips200_set_region/SEEKFREE_IPS200_SPI
  +--> ips200_writedata_16bit/SEEKFREE_IPS200_SPI

ips200_showfloat/SEEKFREE_IPS200_SPI          ----- -----  ----- -----
  +--> zf_sprintf/SEEKFREE_PRINTF
  +--> ips200_showstr/SEEKFREE_IPS200_SPI

zf_sprintf/SEEKFREE_PRINTF                    ----- -----  ----- -----
  +--> number_conversion_ascii/SEEKFREE_PRINTF
  +--> printf_reverse_order/SEEKFREE_PRINTF
  +--> memcpy?_/memcpy

number_conversion_ascii/SEEKFREE_PRINTF       ----- -----  ----- -----
  +--> ?C?SLDIV/?C?SLDIV
  +--> ?C?ULIDIV/?C?ULDIV

printf_reverse_order/SEEKFREE_PRINTF          ----- -----  ----- -----

ips200_showint16/SEEKFREE_IPS200_SPI          ----- -----  ----- -----
  +--> ips200_showchar/SEEKFREE_IPS200_SPI

ips200_showuint8/SEEKFREE_IPS200_SPI          ----- -----  ----- -----
  +--> ips200_showchar/SEEKFREE_IPS200_SPI

dl1a_get_distance/SEEKFREE_DL1A               ----- -----  ----- -----
  +--> dl1a_simiic_read_regs_1/SEEKFREE_DL1A
  +--> dl1a_simiic_write_reg/SEEKFREE_DL1A

dl1a_simiic_read_regs_1/SEEKFREE_DL1A         ----- -----  ----- -----
  +--> dl1a_simiic_start/SEEKFREE_DL1A
  +--> dl1a_send_ch/SEEKFREE_DL1A
  +--> dl1a_read_ch/SEEKFREE_DL1A
  +--> dl1a_simiic_stop/SEEKFREE_DL1A

dl1a_simiic_start/SEEKFREE_DL1A               ----- -----  ----- -----
  +--> dl1a_simiic_delay/SEEKFREE_DL1A

dl1a_simiic_delay/SEEKFREE_DL1A               ----- -----  ----- -----

dl1a_send_ch/SEEKFREE_DL1A                    ----- -----  ----- -----
  +--> dl1a_simiic_delay/SEEKFREE_DL1A
  +--> dl1a_sccb_waitack/SEEKFREE_DL1A

dl1a_sccb_waitack/SEEKFREE_DL1A               ----- -----  ----- -----
  +--> dl1a_simiic_delay/SEEKFREE_DL1A

dl1a_read_ch/SEEKFREE_DL1A                    ----- -----  ----- -----
  +--> dl1a_simiic_delay/SEEKFREE_DL1A
  +--> dl1a_simiic_sendack/SEEKFREE_DL1A

dl1a_simiic_sendack/SEEKFREE_DL1A             ----- -----  ----- -----
L251 LINKER/LOCATER V4.66.93.0                                                        07/19/2023  21:09:12  PAGE 19


  +--> dl1a_simiic_delay/SEEKFREE_DL1A

dl1a_simiic_stop/SEEKFREE_DL1A                ----- -----  ----- -----
  +--> dl1a_simiic_delay/SEEKFREE_DL1A

dl1a_simiic_write_reg/SEEKFREE_DL1A           ----- -----  ----- -----
  +--> dl1a_simiic_start/SEEKFREE_DL1A
  +--> dl1a_send_ch/SEEKFREE_DL1A
  +--> dl1a_simiic_stop/SEEKFREE_DL1A

tof_get/control                               ----- -----  ----- -----

ramp_judge/control                            ----- -----  ----- -----

ramp_control/control                          ----- -----  ----- -----
  +--> direction/control
  +--> ComputerADC/control
  +--> ServoControl/motor

*** NEW ROOT ********************************

?C_C51STARTUP?2                               ----- -----  ----- -----



PUBLIC SYMBOLS OF MODULE:  .\Out_File\SEEKFREE (board)


      VALUE       CLASS    TYPE      PUBLIC SYMBOL NAME
      =================================================
      00FF311EH   CODE     NEAR LAB  ?C?CASTF
      000000FFH   NUMBER   ---       ?C?CODESEG
      00FF30EBH   CODE     NEAR LAB  ?C?FCASTC
      00FF30E6H   CODE     NEAR LAB  ?C?FCASTI
      00FF30E1H   CODE     NEAR LAB  ?C?FCASTL
      00FF2EB4H   CODE     ---       ?C?FPADD
      00FF308FH   CODE     ---       ?C?FPCMP
      00FF308DH   CODE     ---       ?C?FPCMP3
      00FF3622H   CODE     ---       ?C?FPCONVERT
      00FF300CH   CODE     ---       ?C?FPDIV
      00FF3187H   CODE     ---       ?C?FPGETOPN2
      00FF2F6CH   CODE     ---       ?C?FPMUL
      00FF31C4H   CODE     ---       ?C?FPNANRESULT
      00FF30D3H   CODE     ---       ?C?FPNEG
      00FF31CCH   CODE     ---       ?C?FPOVERFLOW
      00FF31A0H   CODE     ---       ?C?FPRESULT
      00FF31B6H   CODE     ---       ?C?FPRESULT2
      00FF36DAH   CODE     ---       ?C?FPROUND
      00FF2EB1H   CODE     ---       ?C?FPSUB
      00FF31C9H   CODE     ---       ?C?FPUNDERFLOW
      00FF374DH   CODE     ---       ?C?FTNPWR
      00FF7E06H   CODE     ---       ?C?INITEDATA
      00FF8430H   HCONST   WORD      ?C?INITEDATA_END
      00FF37C7H   CODE     ---       ?C?LIMUL
      00FF37B6H   CODE     ---       ?C?LMUL
      00FF3205H   CODE     ---       ?C?PRNFMT
      00FF3784H   CODE     ---       ?C?SIDIV
      00FF3823H   CODE     NEAR LAB  ?C?SLDIV
      00FF0000H   CODE     ---       ?C?STARTUP
      00FF37D2H   CODE     NEAR LAB  ?C?ULDIV
      00FF37D0H   CODE     NEAR LAB  ?C?ULIDIV
      00000001H   NUMBER   ---       ?C?XDATASEG
      00FF0000H   CODE     ---       ?C_STARTUP
      00000653H   EDATA    BYTE      ?data_conversion?BYTE
      00000688H   EDATA    BYTE      ?fifo_init?BYTE
L251 LINKER/LOCATER V4.66.93.0                                                        07/19/2023  21:09:12  PAGE 20


      000005C2H   EDATA    BYTE      ?fifo_read_buffer?BYTE
      0000060BH   EDATA    BYTE      ?fifo_write_buffer?BYTE
      000002D3H   EDATA    BYTE      ?ips114_showfloat?BYTE
      000002A3H   EDATA    BYTE      ?ips114_showfloat_simspi?BYTE
      00000393H   EDATA    BYTE      ?ips200_showfloat?BYTE
      00000363H   EDATA    BYTE      ?ips200_showfloat_simspi?BYTE
      00000273H   EDATA    BYTE      ?lcd_showfloat?BYTE
      00000243H   EDATA    BYTE      ?lcd_showfloat_simspi?BYTE
      000005AEH   EDATA    BYTE      ?number_conversion_ascii?BYTE
      00000303H   EDATA    BYTE      ?oled_printf_float?BYTE
      00000333H   EDATA    BYTE      ?oled_printf_float_spi?BYTE
      00000836H   EDATA    BYTE      ?PID_motor?BYTE
*DEL*:00000028H   EDATA    ---       ?printf?BYTE
      0000059AH   EDATA    BYTE      ?pwm_freq?BYTE
      00000586H   EDATA    BYTE      ?pwm_init?BYTE
      000009F0H   EDATA    BYTE      ?spi_init?BYTE
      00000629H   EDATA    BYTE      ?uart_init?BYTE
      0000010DH   EDATA    BYTE      ?zf_sprintf?BYTE
      00000051H   EDATA    FLOAT     A
*SFR* 000000BCH   DATA     BYTE      ADC_CONTR
      00FF6C12H   CODE     ---       adc_init
      00FF7992H   CODE     ---       adc_once
*SFR* 000000BDH   DATA     BYTE      ADC_RES
*SFR* 000000BEH   DATA     BYTE      ADC_RESL
*SFR* 000000DEH   DATA     BYTE      ADCCFG
      00FF8029H   CODE     ---       AdcInit
      00000045H   EDATA    FLOAT     AdcNow
      00FF7EDCH   CODE     ---       AdcRead
*SFR* 000000EFH   DATA     BYTE      AUXINTIF
*SFR* 0000008EH   DATA     BYTE      AUXR
*SFR* 00000097H   DATA     BYTE      AUXR2
*DEL*:00000000H   CODE     ---       bluetooth_ch9141_init
*DEL*:00000000H   CODE     ---       bluetooth_ch9141_read_buff
*DEL*:00000000H   CODE     ---       bluetooth_ch9141_send_buff
      00FF0026H   CODE     ---       bluetooth_ch9141_uart_callback
      00FF6E20H   CODE     ---       board_init
      00000ADBH   EDATA    ---       busy
      00000055H   EDATA    FLOAT     C
*SFR* 000000F1H   DATA     BYTE      CANICR
      00FF70E0H   CODE     ---       circle_control
      00000684H   EDATA    BYTE      circle_finish
      00000686H   EDATA    BYTE      circle_flag
      00FF7E6EH   CODE     ---       circle_judge
*DEL*:00000000H   CODE     ---       circle_ready
      00000687H   EDATA    BYTE      circle_return
      00000682H   EDATA    INT       circle_z
*SFR* 000000EAH   DATA     BYTE      CKCON
*SFR* 000000E6H   DATA     BYTE      CMPCR1
*SFR* 000000E7H   DATA     BYTE      CMPCR2
      0000067FH   EDATA    BYTE      cnt_circl
      00FF623FH   CODE     ---       ComputerADC
*DEL*:00000000H   CODE     ---       CRC_CHECK
      00FF6FDAH   CODE     ---       cross_control
      0000067CH   EDATA    BYTE      cross_flag
      00FF782CH   CODE     ---       cross_judge
      00FF7772H   CODE     ---       ctimer_count_clean
      00FF79E8H   CODE     ---       ctimer_count_init
      00FF6CC7H   CODE     ---       ctimer_count_read
*DEL*:00000000H   CODE     ---       data_conversion
      00FF7D72H   CODE     ---       delay_init
      00FF7EA7H   CODE     ---       delay_ms
*DEL*:00000000H   CODE     ---       delay_us
      000009EEH   EDATA    ---       diangan
      00FF6A80H   CODE     ---       direction
      00FF7163H   CODE     ---       direction_cir
L251 LINKER/LOCATER V4.66.93.0                                                        07/19/2023  21:09:12  PAGE 21


      00FF73C4H   CODE     ---       direction_cross
      00FF000EH   CODE     ---       DisableGlobalIRQ
      00000B61H   EDATA    WORD      dl1a_distance_mm
      00000B63H   EDATA    BYTE      dl1a_finsh_flag
      00FF74A1H   CODE     ---       dl1a_get_distance
*DEL*:00000000H   CODE     ---       dl1a_init
      000009E6H   EDATA    LONG      Duty
*SFR* 000000A8H.7 DATA     BIT       EA
*SFR* 000000BAH.7 DATA     BIT       EAXFR
*DEL*:00000000H   CODE     ---       eeprom_trig
      00FF0006H   CODE     ---       EnableGlobalIRQ
      00000A22H   EDATA    INT       EncodeNowL
      00000A24H   EDATA    INT       EncodeNowR
      00FF8222H   CODE     ---       EncoderInitL
      00FF0046H   CODE     ---       EncoderInitR
      00000040H   EDATA    FLOAT     error
*SFR* 000000A8H.4 DATA     BIT       ES
*SFR* 000000A8H.1 DATA     BIT       ET0
*SFR* 000000A8H.3 DATA     BIT       ET1
*SFR* 000000A8H.0 DATA     BIT       EX0
*SFR* 000000A8H.2 DATA     BIT       EX1
*DEL*:00000000H   CODE     ---       exit_init
*SFR* 000000D0H.5 DATA     BIT       F0
      00FF80F8H   CODE     ---       fabs
*DEL*:00000000H   CODE     ---       fastSqrt
*DEL*:00000000H   CODE     ---       fifo_clear
*DEL*:00000000H   CODE     ---       fifo_end_offset
      00FF750DH   CODE     ---       fifo_head_offset
*DEL*:00000000H   CODE     ---       fifo_init
*DEL*:00000000H   CODE     ---       fifo_read_buffer
*DEL*:00000000H   CODE     ---       fifo_used
      00FF6107H   CODE     ---       fifo_write_buffer
      00FF3857H   CODE     ---       gpio_mode
*DEL*:00000000H   CODE     ---       gpio_pull_set
*SFR* 000000F6H   DATA     BYTE      IAP_ADDRE
*SFR* 000000C3H   DATA     BYTE      IAP_ADDRH
*SFR* 000000C4H   DATA     BYTE      IAP_ADDRL
*SFR* 000000C5H   DATA     BYTE      IAP_CMD
*SFR* 000000C7H   DATA     BYTE      IAP_CONTR
*SFR* 000000C2H   DATA     BYTE      IAP_DATA
*DEL*:00000000H   CODE     ---       iap_erase_page
*DEL*:00000000H   CODE     ---       iap_get_cmd_state
*DEL*:00000000H   CODE     ---       iap_idle
*DEL*:00000000H   CODE     ---       iap_init
*DEL*:00000000H   CODE     ---       iap_read_bytes
*DEL*:00000000H   CODE     ---       iap_set_tps
*SFR* 000000F5H   DATA     BYTE      IAP_TPS
*SFR* 000000C6H   DATA     BYTE      IAP_TRIG
*DEL*:00000000H   CODE     ---       iap_write_bytes
*DEL*:00000000H   CODE     ---       icm20602_acc_transition
      000006F4H   EDATA    INT       icm20602_acc_x
      000006F6H   EDATA    INT       icm20602_acc_y
      000006F8H   EDATA    INT       icm20602_acc_z
*DEL*:00000000H   CODE     ---       icm20602_get_acc
*DEL*:00000000H   CODE     ---       icm20602_get_gyro
*DEL*:00000000H   CODE     ---       icm20602_gyro_transition
      000006FAH   EDATA    INT       icm20602_gyro_x
      000006FCH   EDATA    INT       icm20602_gyro_y
      000006FEH   EDATA    INT       icm20602_gyro_z
*DEL*:00000000H   CODE     ---       icm20602_init
*SFR* 000000A8H   DATA     BYTE      IE
*SFR* 000000AFH   DATA     BYTE      IE2
*DEL*:00000000H   CODE     ---       Imu660Init
*DEL*:00000000H   CODE     ---       imu660ra_acc_transition
      00000700H   EDATA    INT       imu660ra_acc_x
L251 LINKER/LOCATER V4.66.93.0                                                        07/19/2023  21:09:12  PAGE 22


      00000702H   EDATA    INT       imu660ra_acc_y
      00000704H   EDATA    INT       imu660ra_acc_z
      00FF00A6H   CODE     ---       imu660ra_config_file
*DEL*:00000000H   CODE     ---       imu660ra_get_acc
      00FF7AE0H   CODE     ---       imu660ra_get_gyro
*DEL*:00000000H   CODE     ---       imu660ra_gyro_transition
      00000706H   EDATA    INT       imu660ra_gyro_x
      00000708H   EDATA    INT       imu660ra_gyro_y
      0000070AH   EDATA    INT       imu660ra_gyro_z
*DEL*:00000000H   CODE     ---       imu660ra_init
*DEL*:00000000H   CODE     ---       imu963ra_acc_transition
      000005D5H   EDATA    INT       imu963ra_acc_x
      000005D7H   EDATA    INT       imu963ra_acc_y
      000005D9H   EDATA    INT       imu963ra_acc_z
*DEL*:00000000H   CODE     ---       imu963ra_get_acc
*DEL*:00000000H   CODE     ---       imu963ra_get_gyro
*DEL*:00000000H   CODE     ---       imu963ra_get_mag
*DEL*:00000000H   CODE     ---       imu963ra_gyro_transition
      000005E1H   EDATA    INT       imu963ra_gyro_x
      000005E3H   EDATA    INT       imu963ra_gyro_y
      000005E5H   EDATA    INT       imu963ra_gyro_z
*DEL*:00000000H   CODE     ---       imu963ra_init
*DEL*:00000000H   CODE     ---       imu963ra_mag_transition
      000005DBH   EDATA    INT       imu963ra_mag_x
      000005DDH   EDATA    INT       imu963ra_mag_y
      000005DFH   EDATA    INT       imu963ra_mag_z
      00000681H   EDATA    BYTE      imu_flag
      00FF000AH   CODE     ---       INT0_Isr
      00FF822BH   CODE     ---       INT1_Isr
      00FF8233H   CODE     ---       INT2_Isr
      00FF823BH   CODE     ---       INT3_Isr
      00FF8243H   CODE     ---       INT4_Isr
*SFR* 0000008FH   DATA     BYTE      INTCLKO
*SFR* 000000B8H   DATA     BYTE      IP
*SFR* 000000B5H   DATA     BYTE      IP2
*SFR* 000000B6H   DATA     BYTE      IP2H
*SFR* 000000DFH   DATA     BYTE      IP3
*SFR* 000000EEH   DATA     BYTE      IP3H
*SFR* 000000B7H   DATA     BYTE      IPH
*DEL*:00000000H   CODE     ---       ips114_clear
*DEL*:00000000H   CODE     ---       ips114_clear_simspi
*DEL*:00000000H   CODE     ---       ips114_drawpoint
*DEL*:00000000H   CODE     ---       ips114_drawpoint_simspi
*DEL*:00000000H   CODE     ---       ips114_init
*DEL*:00000000H   CODE     ---       ips114_init_simspi
*DEL*:00000000H   CODE     ---       ips114_set_region
*DEL*:00000000H   CODE     ---       ips114_set_region_simspi
*DEL*:00000000H   CODE     ---       ips114_showchar
*DEL*:00000000H   CODE     ---       ips114_showchar_simspi
*DEL*:00000000H   CODE     ---       ips114_showfloat
*DEL*:00000000H   CODE     ---       ips114_showfloat_simspi
*DEL*:00000000H   CODE     ---       ips114_showint16
*DEL*:00000000H   CODE     ---       ips114_showint16_simspi
*DEL*:00000000H   CODE     ---       ips114_showint32
*DEL*:00000000H   CODE     ---       ips114_showint32_simspi
*DEL*:00000000H   CODE     ---       ips114_showint8
*DEL*:00000000H   CODE     ---       ips114_showint8_simspi
*DEL*:00000000H   CODE     ---       ips114_showstr
*DEL*:00000000H   CODE     ---       ips114_showstr_simspi
*DEL*:00000000H   CODE     ---       ips114_showuint16
*DEL*:00000000H   CODE     ---       ips114_showuint16_simspi
*DEL*:00000000H   CODE     ---       ips114_showuint8
*DEL*:00000000H   CODE     ---       ips114_showuint8_simspi
*DEL*:00000000H   CODE     ---       ips114_writeData
*DEL*:00000000H   CODE     ---       ips114_writedata_16bit
L251 LINKER/LOCATER V4.66.93.0                                                        07/19/2023  21:09:12  PAGE 23


*DEL*:00000000H   CODE     ---       ips114_writeData_simspi
*DEL*:00000000H   CODE     ---       ips114_writeDatai_16bit_simspi
*DEL*:00000000H   CODE     ---       ips114_writeIndex
*DEL*:00000000H   CODE     ---       ips114_writeIndex_simspi
      00FF7713H   CODE     ---       ips200_clear
*DEL*:00000000H   CODE     ---       ips200_clear_simspi
*DEL*:00000000H   CODE     ---       ips200_drawpoint
*DEL*:00000000H   CODE     ---       ips200_drawpoint_simspi
      00FF5B8CH   CODE     ---       ips200_init
*DEL*:00000000H   CODE     ---       ips200_init_simspi
      00FF7E32H   CODE     ---       ips200_set_region
*DEL*:00000000H   CODE     ---       ips200_set_region_simspi
      00FF6B53H   CODE     ---       ips200_showchar
*DEL*:00000000H   CODE     ---       ips200_showchar_simspi
      00FF5FC2H   CODE     ---       ips200_showfloat
*DEL*:00000000H   CODE     ---       ips200_showfloat_simspi
      00FF65A5H   CODE     ---       ips200_showint16
*DEL*:00000000H   CODE     ---       ips200_showint16_simspi
*DEL*:00000000H   CODE     ---       ips200_showint32
*DEL*:00000000H   CODE     ---       ips200_showint32_simspi
*DEL*:00000000H   CODE     ---       ips200_showint8
*DEL*:00000000H   CODE     ---       ips200_showint8_simspi
      00FF77CFH   CODE     ---       ips200_showstr
*DEL*:00000000H   CODE     ---       ips200_showstr_simspi
*DEL*:00000000H   CODE     ---       ips200_showuint16
*DEL*:00000000H   CODE     ---       ips200_showuint16_simspi
      00FF6D7BH   CODE     ---       ips200_showuint8
*DEL*:00000000H   CODE     ---       ips200_showuint8_simspi
      00FF81C2H   CODE     ---       ips200_writeData
      00FF7F65H   CODE     ---       ips200_writedata_16bit
*DEL*:00000000H   CODE     ---       ips200_writeData_simspi
*DEL*:00000000H   CODE     ---       ips200_writeDatai_16bit_simspi
      00FF81ADH   CODE     ---       ips200_writeIndex
*DEL*:00000000H   CODE     ---       ips200_writeIndex_simspi
*SFR* 0000009DH   DATA     BYTE      IRCBAND
*SFR* 0000009FH   DATA     BYTE      IRTRIM
*SFR* 00000088H.0 DATA     BIT       IT0
*SFR* 00000088H.2 DATA     BIT       IT1
      0000005BH   EDATA    FLOAT     L
*DEL*:00000000H   CODE     ---       lcd_clear
*DEL*:00000000H   CODE     ---       lcd_clear_simspi
*DEL*:00000000H   CODE     ---       lcd_drawpoint
*DEL*:00000000H   CODE     ---       lcd_drawpoint_simspi
*DEL*:00000000H   CODE     ---       lcd_init
*DEL*:00000000H   CODE     ---       lcd_init_simspi
*DEL*:00000000H   CODE     ---       lcd_set_region
*DEL*:00000000H   CODE     ---       lcd_set_region_simspi
*DEL*:00000000H   CODE     ---       lcd_showchar
*DEL*:00000000H   CODE     ---       lcd_showchar_simspi
*DEL*:00000000H   CODE     ---       lcd_showfloat
*DEL*:00000000H   CODE     ---       lcd_showfloat_simspi
*DEL*:00000000H   CODE     ---       lcd_showint16
*DEL*:00000000H   CODE     ---       lcd_showint16_simspi
*DEL*:00000000H   CODE     ---       lcd_showint32
*DEL*:00000000H   CODE     ---       lcd_showint32_simspi
*DEL*:00000000H   CODE     ---       lcd_showint8
*DEL*:00000000H   CODE     ---       lcd_showint8_simspi
*DEL*:00000000H   CODE     ---       lcd_showstr
*DEL*:00000000H   CODE     ---       lcd_showstr_simspi
*DEL*:00000000H   CODE     ---       lcd_showuint16
*DEL*:00000000H   CODE     ---       lcd_showuint16_simspi
*DEL*:00000000H   CODE     ---       lcd_showuint8
*DEL*:00000000H   CODE     ---       lcd_showuint8_simspi
      00FF8198H   CODE     ---       lcd_writeData
*DEL*:00000000H   CODE     ---       lcd_writedata_16bit
L251 LINKER/LOCATER V4.66.93.0                                                        07/19/2023  21:09:12  PAGE 24


*DEL*:00000000H   CODE     ---       lcd_writeData_16bit_simspi
      00FF7B7CH   CODE     ---       lcd_writeData_simspi
      00FF8183H   CODE     ---       lcd_writeIndex
      00FF7B30H   CODE     ---       lcd_writeIndex_simspi
*SFR* 000000F9H   DATA     BYTE      LINICR
      0000002CH   EDATA    FLOAT     LM
      00FF51F9H   CODE     ---       main
      00FF804EH   CODE     ---       memcpy?_
*DEL*:00000000H   CODE     ---       memset?_
      00000018H   EDATA    WORD      motor_duty_L
      0000001EH   EDATA    WORD      motor_duty_R
      0000067EH   EDATA    BYTE      motor_flag
      00000024H   EDATA    FLOAT     motor_ki_L
      00000030H   EDATA    FLOAT     motor_ki_R
      00000034H   EDATA    FLOAT     motor_kp_L
      0000003CH   EDATA    FLOAT     motor_kp_R
      00FF7FDDH   CODE     ---       MotorControlL
      00FF8003H   CODE     ---       MotorControlR
      00FF8073H   CODE     ---       MotorInit
      0000073CH   EDATA    INT       mpu6050_acc_x
      0000073EH   EDATA    INT       mpu6050_acc_y
      00000740H   EDATA    INT       mpu6050_acc_z
*DEL*:00000000H   CODE     ---       mpu6050_get_accdata
*DEL*:00000000H   CODE     ---       mpu6050_get_gyro
      00000742H   EDATA    INT       mpu6050_gyro_x
      00000744H   EDATA    INT       mpu6050_gyro_y
      00000746H   EDATA    INT       mpu6050_gyro_z
*DEL*:00000000H   CODE     ---       mpu6050_init
*DEL*:00000000H   CODE     ---       mpu6050_simiic_read_reg
*DEL*:00000000H   CODE     ---       mpu6050_simiic_read_regs
      00000014H   EDATA    FLOAT     MyB
      00000028H   EDATA    FLOAT     MyP
      00FF648EH   CODE     ---       number_conversion_ascii
*DEL*:00000000H   CODE     ---       NVIC_SetPriority
      00FF2C86H   CODE     ---       oled_6x8
      00FF20A6H   CODE     ---       oled_8x16
*DEL*:00000000H   CODE     ---       oled_clrpixel
*DEL*:00000000H   CODE     ---       oled_clrpixel_spi
*DEL*:00000000H   CODE     ---       oled_dis_bmp
*DEL*:00000000H   CODE     ---       oled_dis_bmp_spi
*DEL*:00000000H   CODE     ---       oled_fill
*DEL*:00000000H   CODE     ---       oled_fill_spi
      0000067BH   EDATA    BYTE      oled_flag
*DEL*:00000000H   CODE     ---       oled_hexascii
*DEL*:00000000H   CODE     ---       oled_hexascii_spi
*DEL*:00000000H   CODE     ---       oled_init
*DEL*:00000000H   CODE     ---       oled_init_spi
*DEL*:00000000H   CODE     ---       oled_int16
*DEL*:00000000H   CODE     ---       oled_int16_spi
*DEL*:00000000H   CODE     ---       oled_p6x8str
*DEL*:00000000H   CODE     ---       oled_p6x8str_spi
*DEL*:00000000H   CODE     ---       oled_p8x16str
*DEL*:00000000H   CODE     ---       oled_p8x16str_spi
*DEL*:00000000H   CODE     ---       oled_print_chinese
*DEL*:00000000H   CODE     ---       oled_print_chinese_spi
*DEL*:00000000H   CODE     ---       oled_printf_float
*DEL*:00000000H   CODE     ---       oled_printf_float_spi
*DEL*:00000000H   CODE     ---       oled_printf_int32
*DEL*:00000000H   CODE     ---       oled_printf_int32_spi
*DEL*:00000000H   CODE     ---       oled_putpixel
*DEL*:00000000H   CODE     ---       oled_putpixel_spi
*DEL*:00000000H   CODE     ---       oled_set_pos
*DEL*:00000000H   CODE     ---       oled_set_pos_spi
*DEL*:00000000H   CODE     ---       oled_uint16
*DEL*:00000000H   CODE     ---       oled_uint16_spi
L251 LINKER/LOCATER V4.66.93.0                                                        07/19/2023  21:09:12  PAGE 25


*DEL*:00000000H   CODE     ---       oled_wrcmd
*DEL*:00000000H   CODE     ---       oled_wrcmd_spi
*DEL*:00000000H   CODE     ---       oled_wrdat
*DEL*:00000000H   CODE     ---       oled_wrdat_spi
*SFR* 00000080H   DATA     BYTE      P0
*SFR* 00000080H.7 DATA     BIT       P07
*SFR* 00000094H   DATA     BYTE      P0M0
*SFR* 00000093H   DATA     BYTE      P0M1
*SFR* 00000090H   DATA     BYTE      P1
*SFR* 00000092H   DATA     BYTE      P1M0
*SFR* 00000091H   DATA     BYTE      P1M1
*SFR* 000000A0H   DATA     BYTE      P2
*SFR* 000000A0H.0 DATA     BIT       P20
*SFR* 000000A0H.1 DATA     BIT       P21
*SFR* 000000A0H.2 DATA     BIT       P22
*SFR* 000000A0H.3 DATA     BIT       P23
*SFR* 000000A0H.5 DATA     BIT       P25
*SFR* 000000A0H.7 DATA     BIT       P27
*SFR* 00000096H   DATA     BYTE      P2M0
*SFR* 00000095H   DATA     BYTE      P2M1
*SFR* 000000B0H   DATA     BYTE      P3
*SFR* 000000B0H.5 DATA     BIT       P35
*SFR* 000000B2H   DATA     BYTE      P3M0
*SFR* 000000B1H   DATA     BYTE      P3M1
*SFR* 000000C0H   DATA     BYTE      P4
*SFR* 000000C0H.0 DATA     BIT       P40
*SFR* 000000C0H.1 DATA     BIT       P41
*SFR* 000000C0H.2 DATA     BIT       P42
*SFR* 000000C0H.3 DATA     BIT       P43
*SFR* 000000C0H.7 DATA     BIT       P47
*SFR* 000000B4H   DATA     BYTE      P4M0
*SFR* 000000B3H   DATA     BYTE      P4M1
*SFR* 000000C8H   DATA     BYTE      P5
*SFR* 000000C8H.2 DATA     BIT       P52
*SFR* 000000C8H.3 DATA     BIT       P53
*SFR* 000000CAH   DATA     BYTE      P5M0
*SFR* 000000C9H   DATA     BYTE      P5M1
*SFR* 000000E8H   DATA     BYTE      P6
*SFR* 000000E8H.3 DATA     BIT       P63
*SFR* 000000E8H.4 DATA     BIT       P64
*SFR* 000000E8H.5 DATA     BIT       P65
*SFR* 000000CCH   DATA     BYTE      P6M0
*SFR* 000000CBH   DATA     BYTE      P6M1
*SFR* 000000F8H   DATA     BYTE      P7
*SFR* 000000F8H.1 DATA     BIT       P71
*SFR* 000000F8H.7 DATA     BIT       P77
*SFR* 000000E2H   DATA     BYTE      P7M0
*SFR* 000000E1H   DATA     BYTE      P7M1
*SFR* 000000A2H   DATA     BYTE      P_SW1
*SFR* 000000BAH   DATA     BYTE      P_SW2
*SFR* 000000BBH   DATA     BYTE      P_SW3
*SFR* 00000087H   DATA     BYTE      PCON
      00FF68B4H   CODE     ---       PID_motor
      00FF5E68H   CODE     ---       PidControlServo
      00FF699BH   CODE     ---       pit_timer_ms
      00FF315BH   CODE     NEAR LAB  printf
      00FF6EB7H   CODE     ---       printf_reverse_order
*SFR* 000000D0H   DATA     BYTE      PSW
      00FF81FEH   CODE     ---       putchar
      00FF8452H   HCONST   ---       PWM_ARR_ADDR
      00FF845AH   HCONST   ---       PWM_CCER_ADDR
      00FF846AH   HCONST   ---       PWM_CCMR_ADDR
      00FF8432H   HCONST   ---       PWM_CCR_ADDR
      00FF6376H   CODE     ---       pwm_duty
*DEL*:00000000H   CODE     ---       pwm_freq
L251 LINKER/LOCATER V4.66.93.0                                                        07/19/2023  21:09:12  PAGE 26


      00FF47B5H   CODE     ---       pwm_init
      00FF4B8FH   CODE     ---       pwm_set_gpio
      00000067H   EDATA    FLOAT     R
      00FF705DH   CODE     ---       ramp_control
      00000044H   EDATA    BYTE      ramp_flag
      00FF7434H   CODE     ---       ramp_judge
      00FF7CECH   CODE     ---       ReadEncoderL
      00FF7C13H   CODE     ---       ReadEncoderR
      00000038H   EDATA    FLOAT     RM
*SFR* 000000FFH   DATA     BYTE      RSTCFG
*SFR* 0000009BH   DATA     BYTE      S2BUF
*SFR* 0000009AH   DATA     BYTE      S2CON
*SFR* 000000ADH   DATA     BYTE      S3BUF
*SFR* 000000ACH   DATA     BYTE      S3CON
*SFR* 000000FEH   DATA     BYTE      S4BUF
*SFR* 000000FDH   DATA     BYTE      S4CON
*SFR* 00000099H   DATA     BYTE      SBUF
*SFR* 00000098H   DATA     BYTE      SCON
      00000059H   EDATA    INT       servo_duty_delta
      00000049H   EDATA    ---       servo_error
      0000067DH   EDATA    BYTE      servo_flag
      00000075H   EDATA    FLOAT     servo_kd
      0000000CH   EDATA    FLOAT     servo_kd_cir
      00000010H   EDATA    FLOAT     servo_kd_cro
      00000081H   EDATA    FLOAT     servo_kd_ramp
      0000007BH   EDATA    FLOAT     servo_kp
      0000001AH   EDATA    FLOAT     servo_kp_cir
      00000020H   EDATA    FLOAT     servo_kp_cro
      00000008H   EDATA    FLOAT     servo_kp_ramp
      00FF7DB3H   CODE     ---       ServoControl
*DEL*:00000000H   CODE     ---       ServoCorrection
      000009EAH   EDATA    DWORD     ServoDuty
      00FF81D7H   CODE     ---       ServoInit
      00FF544FH   CODE     ---       set_clk
*DEL*:00000000H   CODE     ---       showimage
      00FF59F8H   CODE     ---       showoled
*SFR* 000000CEH   DATA     BYTE      SPCTL
*SFR* 000000CFH   DATA     BYTE      SPDAT
      0000005FH   EDATA    ---       speed_error_L
      0000006BH   EDATA    ---       speed_error_R
      00000079H   EDATA    WORD      speed_set_L
      0000007FH   EDATA    WORD      speed_set_R
      00FF5838H   CODE     ---       SpeedComputerL
      00FF5655H   CODE     ---       SpeedComputerR
      00000085H   EDATA    FLOAT     SpeedNowL
      00000089H   EDATA    FLOAT     SpeedNowR
*DEL*:00000000H   CODE     ---       spi_change_mode
*DEL*:00000000H   CODE     ---       spi_change_pin
      00FF67BFH   CODE     ---       spi_init
      00FF8210H   CODE     ---       spi_mosi
*SFR* 000000CDH   DATA     BYTE      SPSTAT
      00FF8580H   HCONST   ---       sqrtTable
      00000685H   EDATA    BYTE      straight_flag
      00000AF4H   EDATA    LONG      sys_clk
*SFR* 000000D6H   DATA     BYTE      T2H
*SFR* 000000D7H   DATA     BYTE      T2L
*SFR* 000000D4H   DATA     BYTE      T3H
*SFR* 000000D5H   DATA     BYTE      T3L
*SFR* 000000D2H   DATA     BYTE      T4H
*SFR* 000000D3H   DATA     BYTE      T4L
*SFR* 000000DDH   DATA     BYTE      T4T3M
*SFR* 00000088H   DATA     BYTE      TCON
      00000B4CH   EDATA    INT       templ_pluse
      00000B4EH   EDATA    INT       tempr_pluse
      00FF2696H   CODE     ---       tft_ascii
L251 LINKER/LOCATER V4.66.93.0                                                        07/19/2023  21:09:12  PAGE 27


*SFR* 0000008CH   DATA     BYTE      TH0
*SFR* 0000008DH   DATA     BYTE      TH1
      00000A20H   EDATA    WORD      time0_t
*SFR* 0000008AH   DATA     BYTE      TL0
*SFR* 0000008BH   DATA     BYTE      TL1
      00FF824BH   CODE     ---       TM0_Isr
      00FF0012H   CODE     ---       TM1_Isr
      00FF76B1H   CODE     ---       TM2_Isr
      00FF8253H   CODE     ---       TM3_Isr
      00FF825BH   CODE     ---       TM4_Isr
*SFR* 00000089H   DATA     BYTE      TMOD
      00000680H   EDATA    BYTE      tof_flag
      00FF66BAH   CODE     ---       tof_get
*DEL*:00000000H   CODE     ---       TofInit
      00000073H   EDATA    WORD      TofNow
*DEL*:00000000H   CODE     ---       TofShowDistance
*SFR* 00000088H.4 DATA     BIT       TR0
*SFR* 00000088H.6 DATA     BIT       TR1
      00FF7CA6H   CODE     ---       UART1_Isr
      00FF8117H   CODE     ---       UART2_Isr
      00FF8135H   CODE     ---       UART3_Isr
      00FF7351H   CODE     ---       UART4_Isr
      00FF4F47H   CODE     ---       uart_init
*DEL*:00000000H   CODE     ---       uart_putbuff
      00FF72DCH   CODE     ---       uart_putchar
*DEL*:00000000H   CODE     ---       uart_putstr
*SFR* 000000F4H   DATA     BYTE      USBCON
      00000818H   EDATA    ---       virtual_scope_data
*SFR* 000000A6H   DATA     BYTE      VRTRIM
*SFR* 000000C1H   DATA     BYTE      WDT_CONTR
      00FF8153H   CODE     ---       wireless_ch573_callback
*DEL*:00000000H   CODE     ---       wireless_ch573_init
*DEL*:00000000H   CODE     ---       wireless_ch573_read_buff
*DEL*:00000000H   CODE     ---       wireless_ch573_send_buff
      00000B91H   EDATA    INT       wireless_type
      00FF0066H   CODE     ---       wireless_uart_callback
*DEL*:00000000H   CODE     ---       wireless_uart_init
*DEL*:00000000H   CODE     ---       wireless_uart_read_buff
*DEL*:00000000H   CODE     ---       wireless_uart_send_buff
*SFR* 000000E9H   DATA     BYTE      WTST
      00000AFCH   EDATA    WORD      zf_delay_ms
      00000AFEH   EDATA    WORD      zf_delay_us
      00FF4164H   CODE     ---       zf_sprintf



SYMBOL TABLE OF MODULE:  .\Out_File\SEEKFREE (board)

      VALUE       REP       CLASS    TYPE      SYMBOL NAME
      ====================================================
      ---         MODULE    ---      ---       board
      00FF0006H   PUBLIC    CODE     ---       EnableGlobalIRQ
      00FF6E20H   PUBLIC    CODE     ---       board_init
      00FF544FH   PUBLIC    CODE     ---       set_clk
      00FF000EH   PUBLIC    CODE     ---       DisableGlobalIRQ
      00FF81FEH   PUBLIC    CODE     ---       putchar
      00000AF4H   PUBLIC    EDATA    LONG      sys_clk
      00000094H   SFRSYM    DATA     BYTE      P0M0
      000000D0H   SFRSYM    DATA     BYTE      PSW
      000000BAH.7 SFRSYM    DATA     BIT       EAXFR
      0000009DH   SFRSYM    DATA     BYTE      IRCBAND
      00000097H   SFRSYM    DATA     BYTE      AUXR2
      000000EAH   SFRSYM    DATA     BYTE      CKCON
      000000EFH   SFRSYM    DATA     BYTE      AUXINTIF
      000000FDH   SFRSYM    DATA     BYTE      S4CON
L251 LINKER/LOCATER V4.66.93.0                                                        07/19/2023  21:09:12  PAGE 28


      000000ACH   SFRSYM    DATA     BYTE      S3CON
      0000009AH   SFRSYM    DATA     BYTE      S2CON
      000000A6H   SFRSYM    DATA     BYTE      VRTRIM
      000000B7H   SFRSYM    DATA     BYTE      IPH
      000000CDH   SFRSYM    DATA     BYTE      SPSTAT
      000000DDH   SFRSYM    DATA     BYTE      T4T3M
      0000009FH   SFRSYM    DATA     BYTE      IRTRIM
      000000C1H   SFRSYM    DATA     BYTE      WDT_CONTR
      000000E9H   SFRSYM    DATA     BYTE      WTST
      000000DFH   SFRSYM    DATA     BYTE      IP3
      000000F4H   SFRSYM    DATA     BYTE      USBCON
      000000B5H   SFRSYM    DATA     BYTE      IP2
      000000FFH   SFRSYM    DATA     BYTE      RSTCFG
      000000F9H   SFRSYM    DATA     BYTE      LINICR
      0000008EH   SFRSYM    DATA     BYTE      AUXR
      000000AFH   SFRSYM    DATA     BYTE      IE2
      00000088H   SFRSYM    DATA     BYTE      TCON
      00000089H   SFRSYM    DATA     BYTE      TMOD
      00000098H   SFRSYM    DATA     BYTE      SCON
      000000F1H   SFRSYM    DATA     BYTE      CANICR
      00000087H   SFRSYM    DATA     BYTE      PCON
      000000BCH   SFRSYM    DATA     BYTE      ADC_CONTR
      000000E7H   SFRSYM    DATA     BYTE      CMPCR2
      000000E6H   SFRSYM    DATA     BYTE      CMPCR1
      000000DEH   SFRSYM    DATA     BYTE      ADCCFG
      000000B8H   SFRSYM    DATA     BYTE      IP
      0000008FH   SFRSYM    DATA     BYTE      INTCLKO
      000000EEH   SFRSYM    DATA     BYTE      IP3H
      000000B6H   SFRSYM    DATA     BYTE      IP2H
      000000A8H   SFRSYM    DATA     BYTE      IE
      000000BBH   SFRSYM    DATA     BYTE      P_SW3
      000000BAH   SFRSYM    DATA     BYTE      P_SW2
      000000A2H   SFRSYM    DATA     BYTE      P_SW1
      000000CEH   SFRSYM    DATA     BYTE      SPCTL
      000000F8H   SFRSYM    DATA     BYTE      P7
      000000A8H.7 SFRSYM    DATA     BIT       EA
      000000E1H   SFRSYM    DATA     BYTE      P7M1
      000000E8H   SFRSYM    DATA     BYTE      P6
      000000C8H   SFRSYM    DATA     BYTE      P5
      000000CBH   SFRSYM    DATA     BYTE      P6M1
      000000E2H   SFRSYM    DATA     BYTE      P7M0
      000000C0H   SFRSYM    DATA     BYTE      P4
      000000C9H   SFRSYM    DATA     BYTE      P5M1
      000000CCH   SFRSYM    DATA     BYTE      P6M0
      000000B0H   SFRSYM    DATA     BYTE      P3
      000000B3H   SFRSYM    DATA     BYTE      P4M1
      000000CAH   SFRSYM    DATA     BYTE      P5M0
      000000A0H   SFRSYM    DATA     BYTE      P2
      000000B1H   SFRSYM    DATA     BYTE      P3M1
      000000B4H   SFRSYM    DATA     BYTE      P4M0
      00000090H   SFRSYM    DATA     BYTE      P1
      00000095H   SFRSYM    DATA     BYTE      P2M1
      000000B2H   SFRSYM    DATA     BYTE      P3M0
      00000080H   SFRSYM    DATA     BYTE      P0
      00000091H   SFRSYM    DATA     BYTE      P1M1
      00000096H   SFRSYM    DATA     BYTE      P2M0
      00000092H   SFRSYM    DATA     BYTE      P1M0
      00000093H   SFRSYM    DATA     BYTE      P0M1

      00FF544FH   BLOCK     CODE     ---       LVL=0
      00FF544FH   LINE      CODE     ---       #43
      00FF544FH   LINE      CODE     ---       #46
      00FF5452H   LINE      CODE     ---       #48
      00FF5462H   LINE      CODE     ---       #51
      00FF546FH   LINE      CODE     ---       #52
L251 LINKER/LOCATER V4.66.93.0                                                        07/19/2023  21:09:12  PAGE 29


      00FF547CH   LINE      CODE     ---       #53
      00FF5489H   LINE      CODE     ---       #54
      00FF548DH   LINE      CODE     ---       #55
      00FF5499H   LINE      CODE     ---       #56
      00FF549CH   LINE      CODE     ---       #57
      00FF54ACH   LINE      CODE     ---       #60
      00FF54B9H   LINE      CODE     ---       #61
      00FF54C6H   LINE      CODE     ---       #62
      00FF54D3H   LINE      CODE     ---       #63
      00FF54D7H   LINE      CODE     ---       #64
      00FF54E3H   LINE      CODE     ---       #65
      00FF54E6H   LINE      CODE     ---       #66
      00FF54F6H   LINE      CODE     ---       #69
      00FF5503H   LINE      CODE     ---       #70
      00FF5510H   LINE      CODE     ---       #71
      00FF551DH   LINE      CODE     ---       #72
      00FF5521H   LINE      CODE     ---       #73
      00FF552DH   LINE      CODE     ---       #74
      00FF5530H   LINE      CODE     ---       #75
      00FF5540H   LINE      CODE     ---       #79
      00FF554DH   LINE      CODE     ---       #80
      00FF555AH   LINE      CODE     ---       #81
      00FF5567H   LINE      CODE     ---       #82
      00FF556BH   LINE      CODE     ---       #83
      00FF5577H   LINE      CODE     ---       #84
      00FF557AH   LINE      CODE     ---       #85
      00FF558AH   LINE      CODE     ---       #88
      00FF5597H   LINE      CODE     ---       #89
      00FF55A4H   LINE      CODE     ---       #90
      00FF55B1H   LINE      CODE     ---       #91
      00FF55B5H   LINE      CODE     ---       #92
      00FF55C1H   LINE      CODE     ---       #93
      00FF55C4H   LINE      CODE     ---       #94
      00FF55D4H   LINE      CODE     ---       #97
      00FF55E1H   LINE      CODE     ---       #98
      00FF55EEH   LINE      CODE     ---       #99
      00FF55FBH   LINE      CODE     ---       #100
      00FF55FFH   LINE      CODE     ---       #101
      00FF560BH   LINE      CODE     ---       #102
      00FF560DH   LINE      CODE     ---       #105
      00FF5619H   LINE      CODE     ---       #107
      00FF5626H   LINE      CODE     ---       #108
      00FF5633H   LINE      CODE     ---       #109
      00FF5640H   LINE      CODE     ---       #110
      00FF5644H   LINE      CODE     ---       #111
      00FF5650H   LINE      CODE     ---       #112
      00FF5650H   LINE      CODE     ---       #114
      00FF5654H   LINE      CODE     ---       #115
      ---         BLOCKEND  ---      ---       LVL=0

      00FF6E20H   BLOCK     CODE     ---       LVL=0
      00FF6E20H   LINE      CODE     ---       #121
      00FF6E20H   LINE      CODE     ---       #123
      00FF6E24H   LINE      CODE     ---       #124
      00FF6E27H   LINE      CODE     ---       #125
      00FF6E2AH   LINE      CODE     ---       #126
      00FF6E2DH   LINE      CODE     ---       #127
      00FF6E31H   LINE      CODE     ---       #137
      00FF6E38H   LINE      CODE     ---       #143
      00FF6E3BH   LINE      CODE     ---       #145
      00FF6E3EH   LINE      CODE     ---       #146
      00FF6E41H   LINE      CODE     ---       #147
      00FF6E4DH   LINE      CODE     ---       #149
      00FF6E50H   LINE      CODE     ---       #150
      00FF6E53H   LINE      CODE     ---       #151
L251 LINKER/LOCATER V4.66.93.0                                                        07/19/2023  21:09:12  PAGE 30


      00FF6E56H   LINE      CODE     ---       #152
      00FF6E59H   LINE      CODE     ---       #153
      00FF6E5CH   LINE      CODE     ---       #154
      00FF6E5FH   LINE      CODE     ---       #155
      00FF6E62H   LINE      CODE     ---       #156
      00FF6E65H   LINE      CODE     ---       #157
      00FF6E68H   LINE      CODE     ---       #158
      00FF6E6BH   LINE      CODE     ---       #159
      00FF6E6EH   LINE      CODE     ---       #160
      00FF6E71H   LINE      CODE     ---       #161
      00FF6E74H   LINE      CODE     ---       #162
      00FF6E77H   LINE      CODE     ---       #163
      00FF6E7AH   LINE      CODE     ---       #164
      00FF6E7DH   LINE      CODE     ---       #166
      00FF6E80H   LINE      CODE     ---       #167
      00FF6E83H   LINE      CODE     ---       #168
      00FF6E86H   LINE      CODE     ---       #169
      00FF6E89H   LINE      CODE     ---       #170
      00FF6E8CH   LINE      CODE     ---       #171
      00FF6E8FH   LINE      CODE     ---       #172
      00FF6E92H   LINE      CODE     ---       #173
      00FF6E95H   LINE      CODE     ---       #174
      00FF6E98H   LINE      CODE     ---       #176
      00FF6EB3H   LINE      CODE     ---       #177
      00FF6EB6H   LINE      CODE     ---       #178
      ---         BLOCKEND  ---      ---       LVL=0

      00FF81FEH   BLOCK     CODE     ---       LVL=0
      00000BDDH   SYMBOL    EDATA    CHAR      c
      00FF81FEH   LINE      CODE     ---       #183
      00FF8202H   LINE      CODE     ---       #185
      00FF820BH   LINE      CODE     ---       #187
      00FF820FH   LINE      CODE     ---       #188
      ---         BLOCKEND  ---      ---       LVL=0

      00FF000EH   BLOCK     CODE     ---       LVL=0
      00FF000EH   LINE      CODE     ---       #191
      00FF000EH   LINE      CODE     ---       #193
      00FF0011H   LINE      CODE     ---       #194
      ---         BLOCKEND  ---      ---       LVL=0

      00FF0006H   BLOCK     CODE     ---       LVL=0
      00FF0006H   LINE      CODE     ---       #197
      00FF0006H   LINE      CODE     ---       #199
      00FF0009H   LINE      CODE     ---       #200
      ---         BLOCKEND  ---      ---       LVL=0

      ---         MODULE    ---      ---       common
      00000B91H   PUBLIC    EDATA    INT       wireless_type
      000000D0H   SFRSYM    DATA     BYTE      PSW
      0000009DH   SFRSYM    DATA     BYTE      IRCBAND
      00000097H   SFRSYM    DATA     BYTE      AUXR2
      000000EFH   SFRSYM    DATA     BYTE      AUXINTIF
      000000FDH   SFRSYM    DATA     BYTE      S4CON
      000000ACH   SFRSYM    DATA     BYTE      S3CON
      0000009AH   SFRSYM    DATA     BYTE      S2CON
      000000B7H   SFRSYM    DATA     BYTE      IPH
      000000CDH   SFRSYM    DATA     BYTE      SPSTAT
      000000DDH   SFRSYM    DATA     BYTE      T4T3M
      000000C1H   SFRSYM    DATA     BYTE      WDT_CONTR
      000000DFH   SFRSYM    DATA     BYTE      IP3
      000000F4H   SFRSYM    DATA     BYTE      USBCON
      000000B5H   SFRSYM    DATA     BYTE      IP2
      000000FFH   SFRSYM    DATA     BYTE      RSTCFG
      000000F9H   SFRSYM    DATA     BYTE      LINICR
L251 LINKER/LOCATER V4.66.93.0                                                        07/19/2023  21:09:12  PAGE 31


      0000008EH   SFRSYM    DATA     BYTE      AUXR
      000000AFH   SFRSYM    DATA     BYTE      IE2
      00000088H   SFRSYM    DATA     BYTE      TCON
      00000098H   SFRSYM    DATA     BYTE      SCON
      000000F1H   SFRSYM    DATA     BYTE      CANICR
      00000087H   SFRSYM    DATA     BYTE      PCON
      000000BCH   SFRSYM    DATA     BYTE      ADC_CONTR
      000000E7H   SFRSYM    DATA     BYTE      CMPCR2
      000000E6H   SFRSYM    DATA     BYTE      CMPCR1
      000000B8H   SFRSYM    DATA     BYTE      IP
      0000008FH   SFRSYM    DATA     BYTE      INTCLKO
      000000EEH   SFRSYM    DATA     BYTE      IP3H
      000000B6H   SFRSYM    DATA     BYTE      IP2H
      000000A8H   SFRSYM    DATA     BYTE      IE
      000000BBH   SFRSYM    DATA     BYTE      P_SW3
      000000BAH   SFRSYM    DATA     BYTE      P_SW2
      000000A2H   SFRSYM    DATA     BYTE      P_SW1
      000000CEH   SFRSYM    DATA     BYTE      SPCTL
      000000F8H   SFRSYM    DATA     BYTE      P7
      000000E8H   SFRSYM    DATA     BYTE      P6
      000000C8H   SFRSYM    DATA     BYTE      P5
      000000C0H   SFRSYM    DATA     BYTE      P4
      000000B0H   SFRSYM    DATA     BYTE      P3
      000000A0H   SFRSYM    DATA     BYTE      P2
      00000090H   SFRSYM    DATA     BYTE      P1
      00000080H   SFRSYM    DATA     BYTE      P0

      ---         MODULE    ---      ---       zf_adc
      00FF7992H   PUBLIC    CODE     ---       adc_once
      00FF6C12H   PUBLIC    CODE     ---       adc_init
      00000094H   SFRSYM    DATA     BYTE      P0M0
      000000D0H   SFRSYM    DATA     BYTE      PSW
      0000009DH   SFRSYM    DATA     BYTE      IRCBAND
      00000097H   SFRSYM    DATA     BYTE      AUXR2
      000000EFH   SFRSYM    DATA     BYTE      AUXINTIF
      000000FDH   SFRSYM    DATA     BYTE      S4CON
      000000ACH   SFRSYM    DATA     BYTE      S3CON
      0000009AH   SFRSYM    DATA     BYTE      S2CON
      000000B7H   SFRSYM    DATA     BYTE      IPH
      000000CDH   SFRSYM    DATA     BYTE      SPSTAT
      000000BEH   SFRSYM    DATA     BYTE      ADC_RESL
      000000DDH   SFRSYM    DATA     BYTE      T4T3M
      000000C1H   SFRSYM    DATA     BYTE      WDT_CONTR
      000000DFH   SFRSYM    DATA     BYTE      IP3
      000000F4H   SFRSYM    DATA     BYTE      USBCON
      000000B5H   SFRSYM    DATA     BYTE      IP2
      000000FFH   SFRSYM    DATA     BYTE      RSTCFG
      000000F9H   SFRSYM    DATA     BYTE      LINICR
      0000008EH   SFRSYM    DATA     BYTE      AUXR
      000000AFH   SFRSYM    DATA     BYTE      IE2
      00000088H   SFRSYM    DATA     BYTE      TCON
      00000098H   SFRSYM    DATA     BYTE      SCON
      000000F1H   SFRSYM    DATA     BYTE      CANICR
      00000087H   SFRSYM    DATA     BYTE      PCON
      000000BCH   SFRSYM    DATA     BYTE      ADC_CONTR
      000000E7H   SFRSYM    DATA     BYTE      CMPCR2
      000000E6H   SFRSYM    DATA     BYTE      CMPCR1
      000000DEH   SFRSYM    DATA     BYTE      ADCCFG
      000000B8H   SFRSYM    DATA     BYTE      IP
      0000008FH   SFRSYM    DATA     BYTE      INTCLKO
      000000EEH   SFRSYM    DATA     BYTE      IP3H
      000000B6H   SFRSYM    DATA     BYTE      IP2H
      000000BDH   SFRSYM    DATA     BYTE      ADC_RES
      000000A8H   SFRSYM    DATA     BYTE      IE
      000000BBH   SFRSYM    DATA     BYTE      P_SW3
L251 LINKER/LOCATER V4.66.93.0                                                        07/19/2023  21:09:12  PAGE 32


      000000BAH   SFRSYM    DATA     BYTE      P_SW2
      000000A2H   SFRSYM    DATA     BYTE      P_SW1
      000000CEH   SFRSYM    DATA     BYTE      SPCTL
      000000F8H   SFRSYM    DATA     BYTE      P7
      000000E8H   SFRSYM    DATA     BYTE      P6
      000000C8H   SFRSYM    DATA     BYTE      P5
      000000C0H   SFRSYM    DATA     BYTE      P4
      000000B0H   SFRSYM    DATA     BYTE      P3
      000000A0H   SFRSYM    DATA     BYTE      P2
      00000090H   SFRSYM    DATA     BYTE      P1
      00000080H   SFRSYM    DATA     BYTE      P0
      00000091H   SFRSYM    DATA     BYTE      P1M1
      00000092H   SFRSYM    DATA     BYTE      P1M0
      00000093H   SFRSYM    DATA     BYTE      P0M1

      00FF6C12H   BLOCK     CODE     ---       LVL=0
      00000AF8H   SYMBOL    EDATA    INT       adcn
      00000AFAH   SYMBOL    EDATA    INT       speed
      00FF6C12H   LINE      CODE     ---       #32
      00FF6C1AH   LINE      CODE     ---       #34
      00FF6C1DH   LINE      CODE     ---       #36
      00FF6C20H   LINE      CODE     ---       #37
      00FF6C28H   LINE      CODE     ---       #39
      00FF6C3AH   LINE      CODE     ---       #42
      00FF6C55H   LINE      CODE     ---       #43
      00FF6C6EH   LINE      CODE     ---       #44
      00FF6C70H   LINE      CODE     ---       #45
      00FF6C80H   LINE      CODE     ---       #48
      00FF6C9BH   LINE      CODE     ---       #49
      00FF6CB4H   LINE      CODE     ---       #50
      00FF6CB4H   LINE      CODE     ---       #52
      00FF6CC3H   LINE      CODE     ---       #54
      00FF6CC6H   LINE      CODE     ---       #55
      ---         BLOCKEND  ---      ---       LVL=0

      00FF7992H   BLOCK     CODE     ---       LVL=0
      00000A27H   SYMBOL    EDATA    INT       adcn
      00000A29H   SYMBOL    EDATA    INT       resolution
      00FF799AH   BLOCK     CODE     NEAR LAB  LVL=1
      00000A2BH   SYMBOL    EDATA    WORD      adc_value
      ---         BLOCKEND  ---      ---       LVL=1
      00FF7992H   LINE      CODE     ---       #66
      00FF799AH   LINE      CODE     ---       #67
      00FF799AH   LINE      CODE     ---       #70
      00FF799DH   LINE      CODE     ---       #71
      00FF79A5H   LINE      CODE     ---       #73
      00FF79A8H   LINE      CODE     ---       #74
      00FF79ADH   LINE      CODE     ---       #75
      00FF79B0H   LINE      CODE     ---       #77
      00FF79B8H   LINE      CODE     ---       #78
      00FF79C0H   LINE      CODE     ---       #79
      00FF79CEH   LINE      CODE     ---       #81
      00FF79D1H   LINE      CODE     ---       #82
      00FF79D4H   LINE      CODE     ---       #84
      00FF79E7H   LINE      CODE     ---       #87
      00FF79E7H   LINE      CODE     ---       #88
      ---         BLOCKEND  ---      ---       LVL=0

      ---         MODULE    ---      ---       zf_delay
      00FF7D72H   PUBLIC    CODE     ---       delay_init
      00FF7EA7H   PUBLIC    CODE     ---       delay_ms
      00000AFCH   PUBLIC    EDATA    WORD      zf_delay_ms
      00000AFEH   PUBLIC    EDATA    WORD      zf_delay_us
      000000D0H   SFRSYM    DATA     BYTE      PSW
      0000009DH   SFRSYM    DATA     BYTE      IRCBAND
L251 LINKER/LOCATER V4.66.93.0                                                        07/19/2023  21:09:12  PAGE 33


      00000097H   SFRSYM    DATA     BYTE      AUXR2
      000000EFH   SFRSYM    DATA     BYTE      AUXINTIF
      000000FDH   SFRSYM    DATA     BYTE      S4CON
      000000ACH   SFRSYM    DATA     BYTE      S3CON
      0000009AH   SFRSYM    DATA     BYTE      S2CON
      000000B7H   SFRSYM    DATA     BYTE      IPH
      000000CDH   SFRSYM    DATA     BYTE      SPSTAT
      000000DDH   SFRSYM    DATA     BYTE      T4T3M
      000000C1H   SFRSYM    DATA     BYTE      WDT_CONTR
      000000DFH   SFRSYM    DATA     BYTE      IP3
      000000F4H   SFRSYM    DATA     BYTE      USBCON
      000000B5H   SFRSYM    DATA     BYTE      IP2
      000000FFH   SFRSYM    DATA     BYTE      RSTCFG
      000000F9H   SFRSYM    DATA     BYTE      LINICR
      0000008EH   SFRSYM    DATA     BYTE      AUXR
      000000AFH   SFRSYM    DATA     BYTE      IE2
      00000088H   SFRSYM    DATA     BYTE      TCON
      00000098H   SFRSYM    DATA     BYTE      SCON
      000000F1H   SFRSYM    DATA     BYTE      CANICR
      00000087H   SFRSYM    DATA     BYTE      PCON
      000000BCH   SFRSYM    DATA     BYTE      ADC_CONTR
      000000E7H   SFRSYM    DATA     BYTE      CMPCR2
      000000E6H   SFRSYM    DATA     BYTE      CMPCR1
      000000B8H   SFRSYM    DATA     BYTE      IP
      0000008FH   SFRSYM    DATA     BYTE      INTCLKO
      000000EEH   SFRSYM    DATA     BYTE      IP3H
      000000B6H   SFRSYM    DATA     BYTE      IP2H
      000000A8H   SFRSYM    DATA     BYTE      IE
      000000BBH   SFRSYM    DATA     BYTE      P_SW3
      000000BAH   SFRSYM    DATA     BYTE      P_SW2
      000000A2H   SFRSYM    DATA     BYTE      P_SW1
      000000CEH   SFRSYM    DATA     BYTE      SPCTL
      000000F8H   SFRSYM    DATA     BYTE      P7
      000000E8H   SFRSYM    DATA     BYTE      P6
      000000C8H   SFRSYM    DATA     BYTE      P5
      000000C0H   SFRSYM    DATA     BYTE      P4
      000000B0H   SFRSYM    DATA     BYTE      P3
      000000A0H   SFRSYM    DATA     BYTE      P2
      00000090H   SFRSYM    DATA     BYTE      P1
      00000080H   SFRSYM    DATA     BYTE      P0

      00FF7D72H   BLOCK     CODE     ---       LVL=0
      00FF7D72H   LINE      CODE     ---       #34
      00FF7D72H   LINE      CODE     ---       #36
      00FF7D81H   LINE      CODE     ---       #37
      00FF7D94H   LINE      CODE     ---       #38
      00FF7DB2H   LINE      CODE     ---       #40
      ---         BLOCKEND  ---      ---       LVL=0

      00FF7EA7H   BLOCK     CODE     ---       LVL=0
      00000B00H   SYMBOL    EDATA    WORD      ms
      00FF7EABH   BLOCK     CODE     NEAR LAB  LVL=1
      00000B02H   SYMBOL    EDATA    WORD      i
      ---         BLOCKEND  ---      ---       LVL=1
      00FF7EA7H   LINE      CODE     ---       #48
      00FF7EABH   LINE      CODE     ---       #49
      00FF7EABH   LINE      CODE     ---       #51
      00FF7EABH   LINE      CODE     ---       #52
      00FF7EB3H   LINE      CODE     ---       #54
      00FF7EC7H   LINE      CODE     ---       #55
      00FF7EDBH   LINE      CODE     ---       #56
      ---         BLOCKEND  ---      ---       LVL=0
      00000A2DH   SYMBOL    EDATA    DWORD     us
      00000A31H   SYMBOL    EDATA    WORD      i

L251 LINKER/LOCATER V4.66.93.0                                                        07/19/2023  21:09:12  PAGE 34


      ---         MODULE    ---      ---       zf_eeprom
      000000D0H   SFRSYM    DATA     BYTE      PSW
      0000009DH   SFRSYM    DATA     BYTE      IRCBAND
      000000D0H.5 SFRSYM    DATA     BIT       F0
      00000097H   SFRSYM    DATA     BYTE      AUXR2
      000000C6H   SFRSYM    DATA     BYTE      IAP_TRIG
      000000EFH   SFRSYM    DATA     BYTE      AUXINTIF
      000000FDH   SFRSYM    DATA     BYTE      S4CON
      000000ACH   SFRSYM    DATA     BYTE      S3CON
      0000009AH   SFRSYM    DATA     BYTE      S2CON
      000000B7H   SFRSYM    DATA     BYTE      IPH
      000000CDH   SFRSYM    DATA     BYTE      SPSTAT
      000000DDH   SFRSYM    DATA     BYTE      T4T3M
      000000C1H   SFRSYM    DATA     BYTE      WDT_CONTR
      000000C2H   SFRSYM    DATA     BYTE      IAP_DATA
      000000DFH   SFRSYM    DATA     BYTE      IP3
      000000F4H   SFRSYM    DATA     BYTE      USBCON
      000000B5H   SFRSYM    DATA     BYTE      IP2
      000000FFH   SFRSYM    DATA     BYTE      RSTCFG
      000000C7H   SFRSYM    DATA     BYTE      IAP_CONTR
      000000F9H   SFRSYM    DATA     BYTE      LINICR
      0000008EH   SFRSYM    DATA     BYTE      AUXR
      000000AFH   SFRSYM    DATA     BYTE      IE2
      00000088H   SFRSYM    DATA     BYTE      TCON
      00000098H   SFRSYM    DATA     BYTE      SCON
      000000F5H   SFRSYM    DATA     BYTE      IAP_TPS
      000000F1H   SFRSYM    DATA     BYTE      CANICR
      00000087H   SFRSYM    DATA     BYTE      PCON
      000000BCH   SFRSYM    DATA     BYTE      ADC_CONTR
      000000E7H   SFRSYM    DATA     BYTE      CMPCR2
      000000E6H   SFRSYM    DATA     BYTE      CMPCR1
      000000C4H   SFRSYM    DATA     BYTE      IAP_ADDRL
      000000C3H   SFRSYM    DATA     BYTE      IAP_ADDRH
      000000F6H   SFRSYM    DATA     BYTE      IAP_ADDRE
      000000B8H   SFRSYM    DATA     BYTE      IP
      0000008FH   SFRSYM    DATA     BYTE      INTCLKO
      000000EEH   SFRSYM    DATA     BYTE      IP3H
      000000B6H   SFRSYM    DATA     BYTE      IP2H
      000000C5H   SFRSYM    DATA     BYTE      IAP_CMD
      000000A8H   SFRSYM    DATA     BYTE      IE
      000000BBH   SFRSYM    DATA     BYTE      P_SW3
      000000BAH   SFRSYM    DATA     BYTE      P_SW2
      000000A2H   SFRSYM    DATA     BYTE      P_SW1
      000000CEH   SFRSYM    DATA     BYTE      SPCTL
      000000F8H   SFRSYM    DATA     BYTE      P7
      000000A8H.7 SFRSYM    DATA     BIT       EA
      000000E8H   SFRSYM    DATA     BYTE      P6
      000000C8H   SFRSYM    DATA     BYTE      P5
      000000C0H   SFRSYM    DATA     BYTE      P4
      000000B0H   SFRSYM    DATA     BYTE      P3
      000000A0H   SFRSYM    DATA     BYTE      P2
      00000090H   SFRSYM    DATA     BYTE      P1
      00000080H   SFRSYM    DATA     BYTE      P0
      00000BDEH   SYMBOL    EDATA    BYTE      write_time
      0000094EH   SYMBOL    EDATA    WORD      addr
      00000950H   SYMBOL    EDATA    ---       buf
      00000954H   SYMBOL    EDATA    WORD      len
      00000956H   SYMBOL    EDATA    WORD      addr
      00000958H   SYMBOL    EDATA    ---       buf
      0000095CH   SYMBOL    EDATA    WORD      len
      00000B93H   SYMBOL    EDATA    WORD      addr

      ---         MODULE    ---      ---       zf_exti
      000000D0H   SFRSYM    DATA     BYTE      PSW
      0000009DH   SFRSYM    DATA     BYTE      IRCBAND
L251 LINKER/LOCATER V4.66.93.0                                                        07/19/2023  21:09:12  PAGE 35


      00000097H   SFRSYM    DATA     BYTE      AUXR2
      000000EFH   SFRSYM    DATA     BYTE      AUXINTIF
      000000FDH   SFRSYM    DATA     BYTE      S4CON
      000000ACH   SFRSYM    DATA     BYTE      S3CON
      0000009AH   SFRSYM    DATA     BYTE      S2CON
      000000B7H   SFRSYM    DATA     BYTE      IPH
      000000CDH   SFRSYM    DATA     BYTE      SPSTAT
      000000DDH   SFRSYM    DATA     BYTE      T4T3M
      000000C1H   SFRSYM    DATA     BYTE      WDT_CONTR
      00000088H.2 SFRSYM    DATA     BIT       IT1
      000000A8H.2 SFRSYM    DATA     BIT       EX1
      00000088H.0 SFRSYM    DATA     BIT       IT0
      000000A8H.0 SFRSYM    DATA     BIT       EX0
      000000DFH   SFRSYM    DATA     BYTE      IP3
      000000F4H   SFRSYM    DATA     BYTE      USBCON
      000000B5H   SFRSYM    DATA     BYTE      IP2
      000000FFH   SFRSYM    DATA     BYTE      RSTCFG
      000000F9H   SFRSYM    DATA     BYTE      LINICR
      0000008EH   SFRSYM    DATA     BYTE      AUXR
      000000AFH   SFRSYM    DATA     BYTE      IE2
      00000088H   SFRSYM    DATA     BYTE      TCON
      00000098H   SFRSYM    DATA     BYTE      SCON
      000000F1H   SFRSYM    DATA     BYTE      CANICR
      00000087H   SFRSYM    DATA     BYTE      PCON
      000000BCH   SFRSYM    DATA     BYTE      ADC_CONTR
      000000E7H   SFRSYM    DATA     BYTE      CMPCR2
      000000E6H   SFRSYM    DATA     BYTE      CMPCR1
      000000B8H   SFRSYM    DATA     BYTE      IP
      0000008FH   SFRSYM    DATA     BYTE      INTCLKO
      000000EEH   SFRSYM    DATA     BYTE      IP3H
      000000B6H   SFRSYM    DATA     BYTE      IP2H
      000000A8H   SFRSYM    DATA     BYTE      IE
      000000BBH   SFRSYM    DATA     BYTE      P_SW3
      000000BAH   SFRSYM    DATA     BYTE      P_SW2
      000000A2H   SFRSYM    DATA     BYTE      P_SW1
      000000CEH   SFRSYM    DATA     BYTE      SPCTL
      000000F8H   SFRSYM    DATA     BYTE      P7
      000000E8H   SFRSYM    DATA     BYTE      P6
      000000C8H   SFRSYM    DATA     BYTE      P5
      000000C0H   SFRSYM    DATA     BYTE      P4
      000000B0H   SFRSYM    DATA     BYTE      P3
      000000A0H   SFRSYM    DATA     BYTE      P2
      00000090H   SFRSYM    DATA     BYTE      P1
      00000080H   SFRSYM    DATA     BYTE      P0
      00000B04H   SYMBOL    EDATA    INT       int_n
      00000B06H   SYMBOL    EDATA    INT       mode

      ---         MODULE    ---      ---       zf_gpio
      00FF3857H   PUBLIC    CODE     ---       gpio_mode
      00000094H   SFRSYM    DATA     BYTE      P0M0
      000000D0H   SFRSYM    DATA     BYTE      PSW
      0000009DH   SFRSYM    DATA     BYTE      IRCBAND
      00000097H   SFRSYM    DATA     BYTE      AUXR2
      000000EFH   SFRSYM    DATA     BYTE      AUXINTIF
      000000FDH   SFRSYM    DATA     BYTE      S4CON
      000000ACH   SFRSYM    DATA     BYTE      S3CON
      0000009AH   SFRSYM    DATA     BYTE      S2CON
      000000B7H   SFRSYM    DATA     BYTE      IPH
      000000CDH   SFRSYM    DATA     BYTE      SPSTAT
      000000DDH   SFRSYM    DATA     BYTE      T4T3M
      000000C1H   SFRSYM    DATA     BYTE      WDT_CONTR
      000000DFH   SFRSYM    DATA     BYTE      IP3
      000000F4H   SFRSYM    DATA     BYTE      USBCON
      000000B5H   SFRSYM    DATA     BYTE      IP2
      000000FFH   SFRSYM    DATA     BYTE      RSTCFG
L251 LINKER/LOCATER V4.66.93.0                                                        07/19/2023  21:09:12  PAGE 36


      000000F9H   SFRSYM    DATA     BYTE      LINICR
      0000008EH   SFRSYM    DATA     BYTE      AUXR
      000000AFH   SFRSYM    DATA     BYTE      IE2
      00000088H   SFRSYM    DATA     BYTE      TCON
      00000098H   SFRSYM    DATA     BYTE      SCON
      000000F1H   SFRSYM    DATA     BYTE      CANICR
      00000087H   SFRSYM    DATA     BYTE      PCON
      000000BCH   SFRSYM    DATA     BYTE      ADC_CONTR
      000000E7H   SFRSYM    DATA     BYTE      CMPCR2
      000000E6H   SFRSYM    DATA     BYTE      CMPCR1
      000000B8H   SFRSYM    DATA     BYTE      IP
      0000008FH   SFRSYM    DATA     BYTE      INTCLKO
      000000EEH   SFRSYM    DATA     BYTE      IP3H
      000000B6H   SFRSYM    DATA     BYTE      IP2H
      000000A8H   SFRSYM    DATA     BYTE      IE
      000000BBH   SFRSYM    DATA     BYTE      P_SW3
      000000BAH   SFRSYM    DATA     BYTE      P_SW2
      000000A2H   SFRSYM    DATA     BYTE      P_SW1
      000000CEH   SFRSYM    DATA     BYTE      SPCTL
      000000F8H   SFRSYM    DATA     BYTE      P7
      000000E1H   SFRSYM    DATA     BYTE      P7M1
      000000E8H   SFRSYM    DATA     BYTE      P6
      000000C8H   SFRSYM    DATA     BYTE      P5
      000000CBH   SFRSYM    DATA     BYTE      P6M1
      000000E2H   SFRSYM    DATA     BYTE      P7M0
      000000C0H   SFRSYM    DATA     BYTE      P4
      000000C9H   SFRSYM    DATA     BYTE      P5M1
      000000CCH   SFRSYM    DATA     BYTE      P6M0
      000000B0H   SFRSYM    DATA     BYTE      P3
      000000B3H   SFRSYM    DATA     BYTE      P4M1
      000000CAH   SFRSYM    DATA     BYTE      P5M0
      000000A0H   SFRSYM    DATA     BYTE      P2
      000000B1H   SFRSYM    DATA     BYTE      P3M1
      000000B4H   SFRSYM    DATA     BYTE      P4M0
      00000090H   SFRSYM    DATA     BYTE      P1
      00000095H   SFRSYM    DATA     BYTE      P2M1
      000000B2H   SFRSYM    DATA     BYTE      P3M0
      00000080H   SFRSYM    DATA     BYTE      P0
      00000091H   SFRSYM    DATA     BYTE      P1M1
      00000096H   SFRSYM    DATA     BYTE      P2M0
      00000092H   SFRSYM    DATA     BYTE      P1M0
      00000093H   SFRSYM    DATA     BYTE      P0M1
      00000B08H   SYMBOL    EDATA    INT       pin
      00000B0AH   SYMBOL    EDATA    INT       pull

      00FF3857H   BLOCK     CODE     ---       LVL=0
      00000B0CH   SYMBOL    EDATA    INT       pin
      00000B0EH   SYMBOL    EDATA    INT       mode
      00FF3857H   LINE      CODE     ---       #54
      00FF385FH   LINE      CODE     ---       #56
      00FF386CH   LINE      CODE     ---       #58
      00FF387CH   LINE      CODE     ---       #60
      00FF3897H   LINE      CODE     ---       #61
      00FF38B2H   LINE      CODE     ---       #62
      00FF38B2H   LINE      CODE     ---       #63
      00FF38C4H   LINE      CODE     ---       #65
      00FF38DFH   LINE      CODE     ---       #66
      00FF38FAH   LINE      CODE     ---       #67
      00FF38FAH   LINE      CODE     ---       #68
      00FF390CH   LINE      CODE     ---       #70
      00FF3927H   LINE      CODE     ---       #71
      00FF3942H   LINE      CODE     ---       #72
      00FF3942H   LINE      CODE     ---       #74
      00FF3954H   LINE      CODE     ---       #76
      00FF396FH   LINE      CODE     ---       #77
L251 LINKER/LOCATER V4.66.93.0                                                        07/19/2023  21:09:12  PAGE 37


      00FF398AH   LINE      CODE     ---       #78
      00FF398AH   LINE      CODE     ---       #79
      00FF399CH   LINE      CODE     ---       #81
      00FF39B7H   LINE      CODE     ---       #82
      00FF39D2H   LINE      CODE     ---       #83
      00FF39D2H   LINE      CODE     ---       #84
      00FF39E4H   LINE      CODE     ---       #86
      00FF39FFH   LINE      CODE     ---       #87
      00FF3A1AH   LINE      CODE     ---       #88
      00FF3A1AH   LINE      CODE     ---       #89
      00FF3A2CH   LINE      CODE     ---       #91
      00FF3A47H   LINE      CODE     ---       #92
      00FF3A62H   LINE      CODE     ---       #93
      00FF3A62H   LINE      CODE     ---       #94
      00FF3A77H   LINE      CODE     ---       #96
      00FF3A92H   LINE      CODE     ---       #97
      00FF3AADH   LINE      CODE     ---       #98
      00FF3AB0H   LINE      CODE     ---       #100
      00FF3ABFH   LINE      CODE     ---       #102
      00FF3ACFH   LINE      CODE     ---       #104
      00FF3AEAH   LINE      CODE     ---       #105
      00FF3B03H   LINE      CODE     ---       #106
      00FF3B03H   LINE      CODE     ---       #107
      00FF3B15H   LINE      CODE     ---       #109
      00FF3B30H   LINE      CODE     ---       #110
      00FF3B49H   LINE      CODE     ---       #111
      00FF3B49H   LINE      CODE     ---       #112
      00FF3B5BH   LINE      CODE     ---       #114
      00FF3B76H   LINE      CODE     ---       #115
      00FF3B8FH   LINE      CODE     ---       #116
      00FF3B8FH   LINE      CODE     ---       #118
      00FF3BA1H   LINE      CODE     ---       #120
      00FF3BBCH   LINE      CODE     ---       #121
      00FF3BD5H   LINE      CODE     ---       #122
      00FF3BD5H   LINE      CODE     ---       #123
      00FF3BE7H   LINE      CODE     ---       #125
      00FF3C02H   LINE      CODE     ---       #126
      00FF3C1BH   LINE      CODE     ---       #127
      00FF3C1BH   LINE      CODE     ---       #128
      00FF3C2DH   LINE      CODE     ---       #130
      00FF3C48H   LINE      CODE     ---       #131
      00FF3C61H   LINE      CODE     ---       #132
      00FF3C61H   LINE      CODE     ---       #133
      00FF3C73H   LINE      CODE     ---       #135
      00FF3C8EH   LINE      CODE     ---       #136
      00FF3CA7H   LINE      CODE     ---       #137
      00FF3CA7H   LINE      CODE     ---       #138
      00FF3CBCH   LINE      CODE     ---       #140
      00FF3CD7H   LINE      CODE     ---       #141
      00FF3CF0H   LINE      CODE     ---       #142
      00FF3CF3H   LINE      CODE     ---       #145
      00FF3D02H   LINE      CODE     ---       #147
      00FF3D12H   LINE      CODE     ---       #149
      00FF3D2BH   LINE      CODE     ---       #150
      00FF3D46H   LINE      CODE     ---       #151
      00FF3D46H   LINE      CODE     ---       #152
      00FF3D58H   LINE      CODE     ---       #154
      00FF3D71H   LINE      CODE     ---       #155
      00FF3D8CH   LINE      CODE     ---       #156
      00FF3D8CH   LINE      CODE     ---       #157
      00FF3D9EH   LINE      CODE     ---       #159
      00FF3DB7H   LINE      CODE     ---       #160
      00FF3DD2H   LINE      CODE     ---       #161
      00FF3DD2H   LINE      CODE     ---       #163
      00FF3DE4H   LINE      CODE     ---       #165
L251 LINKER/LOCATER V4.66.93.0                                                        07/19/2023  21:09:12  PAGE 38


      00FF3DFDH   LINE      CODE     ---       #166
      00FF3E18H   LINE      CODE     ---       #167
      00FF3E18H   LINE      CODE     ---       #168
      00FF3E2AH   LINE      CODE     ---       #170
      00FF3E43H   LINE      CODE     ---       #171
      00FF3E5EH   LINE      CODE     ---       #172
      00FF3E5EH   LINE      CODE     ---       #173
      00FF3E70H   LINE      CODE     ---       #175
      00FF3E89H   LINE      CODE     ---       #176
      00FF3EA4H   LINE      CODE     ---       #177
      00FF3EA4H   LINE      CODE     ---       #178
      00FF3EB6H   LINE      CODE     ---       #180
      00FF3ECFH   LINE      CODE     ---       #181
      00FF3EEAH   LINE      CODE     ---       #182
      00FF3EEAH   LINE      CODE     ---       #183
      00FF3EFFH   LINE      CODE     ---       #185
      00FF3F18H   LINE      CODE     ---       #186
      00FF3F33H   LINE      CODE     ---       #187
      00FF3F36H   LINE      CODE     ---       #189
      00FF3F45H   LINE      CODE     ---       #191
      00FF3F55H   LINE      CODE     ---       #193
      00FF3F6EH   LINE      CODE     ---       #194
      00FF3F87H   LINE      CODE     ---       #195
      00FF3F87H   LINE      CODE     ---       #196
      00FF3F99H   LINE      CODE     ---       #198
      00FF3FB2H   LINE      CODE     ---       #199
      00FF3FCBH   LINE      CODE     ---       #200
      00FF3FCBH   LINE      CODE     ---       #201
      00FF3FDDH   LINE      CODE     ---       #203
      00FF3FF6H   LINE      CODE     ---       #204
      00FF400FH   LINE      CODE     ---       #205
      00FF400FH   LINE      CODE     ---       #207
      00FF4021H   LINE      CODE     ---       #209
      00FF403AH   LINE      CODE     ---       #210
      00FF4053H   LINE      CODE     ---       #211
      00FF4053H   LINE      CODE     ---       #212
      00FF4065H   LINE      CODE     ---       #214
      00FF407EH   LINE      CODE     ---       #215
      00FF4097H   LINE      CODE     ---       #216
      00FF4097H   LINE      CODE     ---       #217
      00FF40A9H   LINE      CODE     ---       #219
      00FF40C2H   LINE      CODE     ---       #220
      00FF40DBH   LINE      CODE     ---       #221
      00FF40DBH   LINE      CODE     ---       #222
      00FF40EDH   LINE      CODE     ---       #224
      00FF4106H   LINE      CODE     ---       #225
      00FF411FH   LINE      CODE     ---       #226
      00FF411FH   LINE      CODE     ---       #227
      00FF4131H   LINE      CODE     ---       #229
      00FF414AH   LINE      CODE     ---       #230
      00FF4163H   LINE      CODE     ---       #231
      00FF4163H   LINE      CODE     ---       #233
      ---         BLOCKEND  ---      ---       LVL=0

      ---         MODULE    ---      ---       zf_nvic
      000000D0H   SFRSYM    DATA     BYTE      PSW
      0000009DH   SFRSYM    DATA     BYTE      IRCBAND
      00000097H   SFRSYM    DATA     BYTE      AUXR2
      000000EFH   SFRSYM    DATA     BYTE      AUXINTIF
      000000FDH   SFRSYM    DATA     BYTE      S4CON
      000000ACH   SFRSYM    DATA     BYTE      S3CON
      0000009AH   SFRSYM    DATA     BYTE      S2CON
      000000B7H   SFRSYM    DATA     BYTE      IPH
      000000CDH   SFRSYM    DATA     BYTE      SPSTAT
      000000DDH   SFRSYM    DATA     BYTE      T4T3M
L251 LINKER/LOCATER V4.66.93.0                                                        07/19/2023  21:09:12  PAGE 39


      000000C1H   SFRSYM    DATA     BYTE      WDT_CONTR
      000000DFH   SFRSYM    DATA     BYTE      IP3
      000000F4H   SFRSYM    DATA     BYTE      USBCON
      000000B5H   SFRSYM    DATA     BYTE      IP2
      000000FFH   SFRSYM    DATA     BYTE      RSTCFG
      000000F9H   SFRSYM    DATA     BYTE      LINICR
      0000008EH   SFRSYM    DATA     BYTE      AUXR
      000000AFH   SFRSYM    DATA     BYTE      IE2
      00000088H   SFRSYM    DATA     BYTE      TCON
      00000098H   SFRSYM    DATA     BYTE      SCON
      000000F1H   SFRSYM    DATA     BYTE      CANICR
      00000087H   SFRSYM    DATA     BYTE      PCON
      000000BCH   SFRSYM    DATA     BYTE      ADC_CONTR
      000000E7H   SFRSYM    DATA     BYTE      CMPCR2
      000000E6H   SFRSYM    DATA     BYTE      CMPCR1
      000000B8H   SFRSYM    DATA     BYTE      IP
      0000008FH   SFRSYM    DATA     BYTE      INTCLKO
      000000EEH   SFRSYM    DATA     BYTE      IP3H
      000000B6H   SFRSYM    DATA     BYTE      IP2H
      000000A8H   SFRSYM    DATA     BYTE      IE
      000000BBH   SFRSYM    DATA     BYTE      P_SW3
      000000BAH   SFRSYM    DATA     BYTE      P_SW2
      000000A2H   SFRSYM    DATA     BYTE      P_SW1
      000000CEH   SFRSYM    DATA     BYTE      SPCTL
      000000F8H   SFRSYM    DATA     BYTE      P7
      000000E8H   SFRSYM    DATA     BYTE      P6
      000000C8H   SFRSYM    DATA     BYTE      P5
      000000C0H   SFRSYM    DATA     BYTE      P4
      000000B0H   SFRSYM    DATA     BYTE      P3
      000000A0H   SFRSYM    DATA     BYTE      P2
      00000090H   SFRSYM    DATA     BYTE      P1
      00000080H   SFRSYM    DATA     BYTE      P0
      00000B58H   SYMBOL    EDATA    INT       irqn
      00000B5AH   SYMBOL    EDATA    BYTE      priority

      ---         MODULE    ---      ---       zf_pwm
      00FF6376H   PUBLIC    CODE     ---       pwm_duty
      00FF4B8FH   PUBLIC    CODE     ---       pwm_set_gpio
      00FF47B5H   PUBLIC    CODE     ---       pwm_init
      00FF8432H   PUBLIC    HCONST   ---       PWM_CCR_ADDR
      00FF8452H   PUBLIC    HCONST   ---       PWM_ARR_ADDR
      00FF845AH   PUBLIC    HCONST   ---       PWM_CCER_ADDR
      00FF846AH   PUBLIC    HCONST   ---       PWM_CCMR_ADDR
      00000586H   PUBLIC    EDATA    BYTE      ?pwm_init?BYTE
      0000059AH   PUBLIC    EDATA    BYTE      ?pwm_freq?BYTE
      000000D0H   SFRSYM    DATA     BYTE      PSW
      0000009DH   SFRSYM    DATA     BYTE      IRCBAND
      00000097H   SFRSYM    DATA     BYTE      AUXR2
      000000EFH   SFRSYM    DATA     BYTE      AUXINTIF
      000000FDH   SFRSYM    DATA     BYTE      S4CON
      000000ACH   SFRSYM    DATA     BYTE      S3CON
      0000009AH   SFRSYM    DATA     BYTE      S2CON
      000000B7H   SFRSYM    DATA     BYTE      IPH
      000000CDH   SFRSYM    DATA     BYTE      SPSTAT
      000000DDH   SFRSYM    DATA     BYTE      T4T3M
      000000C1H   SFRSYM    DATA     BYTE      WDT_CONTR
      000000DFH   SFRSYM    DATA     BYTE      IP3
      000000F4H   SFRSYM    DATA     BYTE      USBCON
      000000B5H   SFRSYM    DATA     BYTE      IP2
      000000FFH   SFRSYM    DATA     BYTE      RSTCFG
      000000F9H   SFRSYM    DATA     BYTE      LINICR
      0000008EH   SFRSYM    DATA     BYTE      AUXR
      000000AFH   SFRSYM    DATA     BYTE      IE2
      00000088H   SFRSYM    DATA     BYTE      TCON
      00000098H   SFRSYM    DATA     BYTE      SCON
L251 LINKER/LOCATER V4.66.93.0                                                        07/19/2023  21:09:12  PAGE 40


      000000F1H   SFRSYM    DATA     BYTE      CANICR
      00000087H   SFRSYM    DATA     BYTE      PCON
      000000BCH   SFRSYM    DATA     BYTE      ADC_CONTR
      000000E7H   SFRSYM    DATA     BYTE      CMPCR2
      000000E6H   SFRSYM    DATA     BYTE      CMPCR1
      000000B8H   SFRSYM    DATA     BYTE      IP
      0000008FH   SFRSYM    DATA     BYTE      INTCLKO
      000000EEH   SFRSYM    DATA     BYTE      IP3H
      000000B6H   SFRSYM    DATA     BYTE      IP2H
      000000A8H   SFRSYM    DATA     BYTE      IE
      000000BBH   SFRSYM    DATA     BYTE      P_SW3
      000000BAH   SFRSYM    DATA     BYTE      P_SW2
      000000A2H   SFRSYM    DATA     BYTE      P_SW1
      000000CEH   SFRSYM    DATA     BYTE      SPCTL
      000000F8H   SFRSYM    DATA     BYTE      P7
      000000E8H   SFRSYM    DATA     BYTE      P6
      000000C8H   SFRSYM    DATA     BYTE      P5
      000000C0H   SFRSYM    DATA     BYTE      P4
      000000B0H   SFRSYM    DATA     BYTE      P3
      000000A0H   SFRSYM    DATA     BYTE      P2
      00000090H   SFRSYM    DATA     BYTE      P1
      00000080H   SFRSYM    DATA     BYTE      P0

      00FF4B8FH   BLOCK     CODE     ---       LVL=0
      00000B95H   SYMBOL    EDATA    INT       pwmch
      00FF4B8FH   LINE      CODE     ---       #49
      00FF4B93H   LINE      CODE     ---       #51
      00FF4D08H   LINE      CODE     ---       #53
      00FF4D08H   LINE      CODE     ---       #55
      00FF4D13H   LINE      CODE     ---       #56
      00FF4D16H   LINE      CODE     ---       #58
      00FF4D16H   LINE      CODE     ---       #60
      00FF4D21H   LINE      CODE     ---       #61
      00FF4D24H   LINE      CODE     ---       #63
      00FF4D24H   LINE      CODE     ---       #65
      00FF4D2FH   LINE      CODE     ---       #66
      00FF4D32H   LINE      CODE     ---       #68
      00FF4D32H   LINE      CODE     ---       #70
      00FF4D3DH   LINE      CODE     ---       #71
      00FF4D40H   LINE      CODE     ---       #73
      00FF4D40H   LINE      CODE     ---       #75
      00FF4D4BH   LINE      CODE     ---       #76
      00FF4D4EH   LINE      CODE     ---       #78
      00FF4D4EH   LINE      CODE     ---       #80
      00FF4D59H   LINE      CODE     ---       #81
      00FF4D5CH   LINE      CODE     ---       #84
      00FF4D5CH   LINE      CODE     ---       #86
      00FF4D67H   LINE      CODE     ---       #87
      00FF4D6AH   LINE      CODE     ---       #89
      00FF4D6AH   LINE      CODE     ---       #91
      00FF4D75H   LINE      CODE     ---       #92
      00FF4D78H   LINE      CODE     ---       #94
      00FF4D78H   LINE      CODE     ---       #96
      00FF4D83H   LINE      CODE     ---       #97
      00FF4D86H   LINE      CODE     ---       #99
      00FF4D86H   LINE      CODE     ---       #101
      00FF4D91H   LINE      CODE     ---       #102
      00FF4D94H   LINE      CODE     ---       #104
      00FF4D94H   LINE      CODE     ---       #106
      00FF4D9FH   LINE      CODE     ---       #107
      00FF4DA2H   LINE      CODE     ---       #109
      00FF4DA2H   LINE      CODE     ---       #111
      00FF4DADH   LINE      CODE     ---       #112
      00FF4DB0H   LINE      CODE     ---       #115
      00FF4DB0H   LINE      CODE     ---       #117
L251 LINKER/LOCATER V4.66.93.0                                                        07/19/2023  21:09:12  PAGE 41


      00FF4DBBH   LINE      CODE     ---       #118
      00FF4DBEH   LINE      CODE     ---       #120
      00FF4DBEH   LINE      CODE     ---       #122
      00FF4DC9H   LINE      CODE     ---       #123
      00FF4DCCH   LINE      CODE     ---       #125
      00FF4DCCH   LINE      CODE     ---       #127
      00FF4DD7H   LINE      CODE     ---       #128
      00FF4DDAH   LINE      CODE     ---       #130
      00FF4DDAH   LINE      CODE     ---       #132
      00FF4DE5H   LINE      CODE     ---       #133
      00FF4DE8H   LINE      CODE     ---       #135
      00FF4DE8H   LINE      CODE     ---       #137
      00FF4DF3H   LINE      CODE     ---       #138
      00FF4DF6H   LINE      CODE     ---       #140
      00FF4DF6H   LINE      CODE     ---       #142
      00FF4E01H   LINE      CODE     ---       #143
      00FF4E04H   LINE      CODE     ---       #147
      00FF4E04H   LINE      CODE     ---       #149
      00FF4E0FH   LINE      CODE     ---       #150
      00FF4E12H   LINE      CODE     ---       #152
      00FF4E12H   LINE      CODE     ---       #154
      00FF4E1DH   LINE      CODE     ---       #155
      00FF4E20H   LINE      CODE     ---       #157
      00FF4E20H   LINE      CODE     ---       #159
      00FF4E2BH   LINE      CODE     ---       #160
      00FF4E2EH   LINE      CODE     ---       #162
      00FF4E2EH   LINE      CODE     ---       #164
      00FF4E39H   LINE      CODE     ---       #165
      00FF4E3CH   LINE      CODE     ---       #167
      00FF4E3CH   LINE      CODE     ---       #169
      00FF4E47H   LINE      CODE     ---       #170
      00FF4E4AH   LINE      CODE     ---       #172
      00FF4E4AH   LINE      CODE     ---       #174
      00FF4E55H   LINE      CODE     ---       #175
      00FF4E58H   LINE      CODE     ---       #177
      00FF4E58H   LINE      CODE     ---       #179
      00FF4E63H   LINE      CODE     ---       #180
      00FF4E66H   LINE      CODE     ---       #182
      00FF4E66H   LINE      CODE     ---       #184
      00FF4E71H   LINE      CODE     ---       #185
      00FF4E74H   LINE      CODE     ---       #189
      00FF4E74H   LINE      CODE     ---       #191
      00FF4E7FH   LINE      CODE     ---       #192
      00FF4E82H   LINE      CODE     ---       #194
      00FF4E82H   LINE      CODE     ---       #196
      00FF4E8DH   LINE      CODE     ---       #197
      00FF4E90H   LINE      CODE     ---       #199
      00FF4E90H   LINE      CODE     ---       #201
      00FF4E99H   LINE      CODE     ---       #202
      00FF4E9CH   LINE      CODE     ---       #204
      00FF4E9CH   LINE      CODE     ---       #206
      00FF4EA7H   LINE      CODE     ---       #207
      00FF4EAAH   LINE      CODE     ---       #210
      00FF4EAAH   LINE      CODE     ---       #212
      00FF4EB5H   LINE      CODE     ---       #213
      00FF4EB8H   LINE      CODE     ---       #215
      00FF4EB8H   LINE      CODE     ---       #217
      00FF4EC3H   LINE      CODE     ---       #218
      00FF4EC6H   LINE      CODE     ---       #220
      00FF4EC6H   LINE      CODE     ---       #222
      00FF4ED1H   LINE      CODE     ---       #223
      00FF4ED3H   LINE      CODE     ---       #225
      00FF4ED3H   LINE      CODE     ---       #227
      00FF4EDEH   LINE      CODE     ---       #228
      00FF4EE0H   LINE      CODE     ---       #232
L251 LINKER/LOCATER V4.66.93.0                                                        07/19/2023  21:09:12  PAGE 42


      00FF4EE0H   LINE      CODE     ---       #234
      00FF4EEBH   LINE      CODE     ---       #235
      00FF4EEDH   LINE      CODE     ---       #237
      00FF4EEDH   LINE      CODE     ---       #239
      00FF4EF8H   LINE      CODE     ---       #240
      00FF4EFAH   LINE      CODE     ---       #242
      00FF4EFAH   LINE      CODE     ---       #244
      00FF4F05H   LINE      CODE     ---       #245
      00FF4F07H   LINE      CODE     ---       #247
      00FF4F07H   LINE      CODE     ---       #249
      00FF4F12H   LINE      CODE     ---       #250
      00FF4F14H   LINE      CODE     ---       #254
      00FF4F14H   LINE      CODE     ---       #256
      00FF4F1FH   LINE      CODE     ---       #257
      00FF4F21H   LINE      CODE     ---       #259
      00FF4F21H   LINE      CODE     ---       #261
      00FF4F2CH   LINE      CODE     ---       #262
      00FF4F2EH   LINE      CODE     ---       #264
      00FF4F2EH   LINE      CODE     ---       #266
      00FF4F39H   LINE      CODE     ---       #267
      00FF4F3BH   LINE      CODE     ---       #269
      00FF4F3BH   LINE      CODE     ---       #271
      00FF4F46H   LINE      CODE     ---       #272
      00FF4F46H   LINE      CODE     ---       #275
      00FF4F46H   LINE      CODE     ---       #277
      ---         BLOCKEND  ---      ---       LVL=0

      00FF47B5H   BLOCK     CODE     ---       LVL=0
      00000586H   SYMBOL    EDATA    INT       pwmch
      00000588H   SYMBOL    EDATA    DWORD     freq
      0000058CH   SYMBOL    EDATA    DWORD     duty
      00FF47BDH   BLOCK     CODE     NEAR LAB  LVL=1
      00000590H   SYMBOL    EDATA    DWORD     match_temp
      00000594H   SYMBOL    EDATA    DWORD     period_temp
      00000598H   SYMBOL    EDATA    WORD      freq_div
      ---         BLOCKEND  ---      ---       LVL=1
      00FF47B5H   LINE      CODE     ---       #290
      00FF47BDH   LINE      CODE     ---       #291
      00FF47BDH   LINE      CODE     ---       #295
      00FF47C3H   LINE      CODE     ---       #298
      00FF47C6H   LINE      CODE     ---       #301
      00FF47CDH   LINE      CODE     ---       #305
      00FF47E0H   LINE      CODE     ---       #306
      00FF47EFH   LINE      CODE     ---       #307
      00FF480AH   LINE      CODE     ---       #309
      00FF4814H   LINE      CODE     ---       #311
      00FF483BH   LINE      CODE     ---       #312
      00FF483DH   LINE      CODE     ---       #315
      00FF484BH   LINE      CODE     ---       #316
      00FF484BH   LINE      CODE     ---       #319
      00FF485AH   LINE      CODE     ---       #322
      00FF488BH   LINE      CODE     ---       #323
      00FF48C2H   LINE      CODE     ---       #326
      00FF4914H   LINE      CODE     ---       #329
      00FF4927H   LINE      CODE     ---       #330
      00FF4936H   LINE      CODE     ---       #332
      00FF4943H   LINE      CODE     ---       #333
      00FF4950H   LINE      CODE     ---       #334
      00FF4953H   LINE      CODE     ---       #337
      00FF4991H   LINE      CODE     ---       #338
      00FF49C4H   LINE      CODE     ---       #341
      00FF4A24H   LINE      CODE     ---       #345
      00FF4A37H   LINE      CODE     ---       #346
      00FF4A46H   LINE      CODE     ---       #348
      00FF4A53H   LINE      CODE     ---       #349
L251 LINKER/LOCATER V4.66.93.0                                                        07/19/2023  21:09:12  PAGE 43


      00FF4A60H   LINE      CODE     ---       #350
      00FF4A60H   LINE      CODE     ---       #353
      00FF4A92H   LINE      CODE     ---       #354
      00FF4ACAH   LINE      CODE     ---       #357
      00FF4AF8H   LINE      CODE     ---       #358
      00FF4B2CH   LINE      CODE     ---       #361
      00FF4B5DH   LINE      CODE     ---       #362
      00FF4B8EH   LINE      CODE     ---       #367
      ---         BLOCKEND  ---      ---       LVL=0

      00FF6376H   BLOCK     CODE     ---       LVL=0
      0000061BH   SYMBOL    EDATA    INT       pwmch
      0000061DH   SYMBOL    EDATA    DWORD     duty
      00FF637EH   BLOCK     CODE     NEAR LAB  LVL=1
      00000621H   SYMBOL    EDATA    DWORD     match_temp
      00000625H   SYMBOL    EDATA    DWORD     arr
      ---         BLOCKEND  ---      ---       LVL=1
      00FF6376H   LINE      CODE     ---       #377
      00FF637EH   LINE      CODE     ---       #378
      00FF637EH   LINE      CODE     ---       #380
      00FF63EAH   LINE      CODE     ---       #384
      00FF63F4H   LINE      CODE     ---       #386
      00FF641BH   LINE      CODE     ---       #387
      00FF641DH   LINE      CODE     ---       #390
      00FF642BH   LINE      CODE     ---       #391
      00FF642BH   LINE      CODE     ---       #396
      00FF6459H   LINE      CODE     ---       #397
      00FF648DH   LINE      CODE     ---       #401
      ---         BLOCKEND  ---      ---       LVL=0
      0000059AH   SYMBOL    EDATA    INT       pwmch
      0000059CH   SYMBOL    EDATA    DWORD     freq
      000005A0H   SYMBOL    EDATA    DWORD     duty
      000005A4H   SYMBOL    EDATA    DWORD     match_temp
      000005A8H   SYMBOL    EDATA    DWORD     period_temp
      000005ACH   SYMBOL    EDATA    WORD      freq_div

      ---         MODULE    ---      ---       zf_spi
      00FF67BFH   PUBLIC    CODE     ---       spi_init
      00FF8210H   PUBLIC    CODE     ---       spi_mosi
      000009F0H   PUBLIC    EDATA    BYTE      ?spi_init?BYTE
      000000CFH   SFRSYM    DATA     BYTE      SPDAT
      000000D0H   SFRSYM    DATA     BYTE      PSW
      0000009DH   SFRSYM    DATA     BYTE      IRCBAND
      00000097H   SFRSYM    DATA     BYTE      AUXR2
      000000EFH   SFRSYM    DATA     BYTE      AUXINTIF
      000000FDH   SFRSYM    DATA     BYTE      S4CON
      000000ACH   SFRSYM    DATA     BYTE      S3CON
      0000009AH   SFRSYM    DATA     BYTE      S2CON
      000000B7H   SFRSYM    DATA     BYTE      IPH
      000000CDH   SFRSYM    DATA     BYTE      SPSTAT
      000000DDH   SFRSYM    DATA     BYTE      T4T3M
      000000C1H   SFRSYM    DATA     BYTE      WDT_CONTR
      000000DFH   SFRSYM    DATA     BYTE      IP3
      000000F4H   SFRSYM    DATA     BYTE      USBCON
      000000B5H   SFRSYM    DATA     BYTE      IP2
      000000FFH   SFRSYM    DATA     BYTE      RSTCFG
      000000F9H   SFRSYM    DATA     BYTE      LINICR
      0000008EH   SFRSYM    DATA     BYTE      AUXR
      000000AFH   SFRSYM    DATA     BYTE      IE2
      00000088H   SFRSYM    DATA     BYTE      TCON
      00000098H   SFRSYM    DATA     BYTE      SCON
      000000F1H   SFRSYM    DATA     BYTE      CANICR
      00000087H   SFRSYM    DATA     BYTE      PCON
      000000BCH   SFRSYM    DATA     BYTE      ADC_CONTR
      000000E7H   SFRSYM    DATA     BYTE      CMPCR2
L251 LINKER/LOCATER V4.66.93.0                                                        07/19/2023  21:09:12  PAGE 44


      000000E6H   SFRSYM    DATA     BYTE      CMPCR1
      000000B8H   SFRSYM    DATA     BYTE      IP
      0000008FH   SFRSYM    DATA     BYTE      INTCLKO
      000000EEH   SFRSYM    DATA     BYTE      IP3H
      000000B6H   SFRSYM    DATA     BYTE      IP2H
      000000A8H   SFRSYM    DATA     BYTE      IE
      000000BBH   SFRSYM    DATA     BYTE      P_SW3
      000000BAH   SFRSYM    DATA     BYTE      P_SW2
      000000A2H   SFRSYM    DATA     BYTE      P_SW1
      000000CEH   SFRSYM    DATA     BYTE      SPCTL
      000000F8H   SFRSYM    DATA     BYTE      P7
      000000E8H   SFRSYM    DATA     BYTE      P6
      000000C8H   SFRSYM    DATA     BYTE      P5
      000000C0H   SFRSYM    DATA     BYTE      P4
      000000B0H   SFRSYM    DATA     BYTE      P3
      000000A0H   SFRSYM    DATA     BYTE      P2
      00000090H   SFRSYM    DATA     BYTE      P1
      00000080H   SFRSYM    DATA     BYTE      P0

      00FF67BFH   BLOCK     CODE     ---       LVL=0
      000009F6H   SYMBOL    EDATA    INT       spi_n
      000009F8H   SYMBOL    EDATA    BYTE      mode
      000009F9H   SYMBOL    EDATA    INT       mstr
      000009FBH   SYMBOL    EDATA    INT       baud
      00FF67BFH   LINE      CODE     ---       #39
      00FF67C7H   LINE      CODE     ---       #47
      00FF67D9H   LINE      CODE     ---       #50
      00FF67D9H   LINE      CODE     ---       #51
      00FF67E2H   LINE      CODE     ---       #52
      00FF67EBH   LINE      CODE     ---       #53
      00FF67F4H   LINE      CODE     ---       #54
      00FF67F6H   LINE      CODE     ---       #55
      00FF67F6H   LINE      CODE     ---       #56
      00FF67FFH   LINE      CODE     ---       #57
      00FF6808H   LINE      CODE     ---       #58
      00FF6811H   LINE      CODE     ---       #59
      00FF6813H   LINE      CODE     ---       #60
      00FF6813H   LINE      CODE     ---       #61
      00FF681CH   LINE      CODE     ---       #62
      00FF6825H   LINE      CODE     ---       #63
      00FF682EH   LINE      CODE     ---       #64
      00FF6830H   LINE      CODE     ---       #65
      00FF6830H   LINE      CODE     ---       #66
      00FF6839H   LINE      CODE     ---       #67
      00FF6842H   LINE      CODE     ---       #68
      00FF684BH   LINE      CODE     ---       #69
      00FF684BH   LINE      CODE     ---       #70
      00FF684BH   LINE      CODE     ---       #72
      00FF684EH   LINE      CODE     ---       #73
      00FF6864H   LINE      CODE     ---       #75
      00FF6864H   LINE      CODE     ---       #76
      00FF6868H   LINE      CODE     ---       #77
      00FF686AH   LINE      CODE     ---       #78
      00FF686AH   LINE      CODE     ---       #79
      00FF686DH   LINE      CODE     ---       #80
      00FF686FH   LINE      CODE     ---       #81
      00FF686FH   LINE      CODE     ---       #82
      00FF6872H   LINE      CODE     ---       #83
      00FF6874H   LINE      CODE     ---       #84
      00FF6874H   LINE      CODE     ---       #85
      00FF6877H   LINE      CODE     ---       #86
      00FF6877H   LINE      CODE     ---       #87
      00FF6877H   LINE      CODE     ---       #89
      00FF687AH   LINE      CODE     ---       #90
      00FF6889H   LINE      CODE     ---       #92
L251 LINKER/LOCATER V4.66.93.0                                                        07/19/2023  21:09:12  PAGE 45


      00FF6889H   LINE      CODE     ---       #94
      00FF688BH   LINE      CODE     ---       #95
      00FF688BH   LINE      CODE     ---       #96
      00FF688EH   LINE      CODE     ---       #97
      00FF6890H   LINE      CODE     ---       #98
      00FF6890H   LINE      CODE     ---       #99
      00FF6893H   LINE      CODE     ---       #100
      00FF6895H   LINE      CODE     ---       #101
      00FF6895H   LINE      CODE     ---       #102
      00FF6898H   LINE      CODE     ---       #103
      00FF6898H   LINE      CODE     ---       #104
      00FF6898H   LINE      CODE     ---       #107
      00FF68A0H   LINE      CODE     ---       #109
      00FF68AAH   LINE      CODE     ---       #111
      00FF68ADH   LINE      CODE     ---       #112
      00FF68B0H   LINE      CODE     ---       #113
      00FF68B0H   LINE      CODE     ---       #117
      00FF68B0H   LINE      CODE     ---       #118
      00FF68B3H   LINE      CODE     ---       #119
      ---         BLOCKEND  ---      ---       LVL=0

      00FF8210H   BLOCK     CODE     ---       LVL=0
      00000BDFH   SYMBOL    EDATA    BYTE      dat
      00FF8210H   LINE      CODE     ---       #129
      00FF8214H   LINE      CODE     ---       #131
      00FF8216H   LINE      CODE     ---       #132
      00FF821BH   LINE      CODE     ---       #133
      00FF821FH   LINE      CODE     ---       #134
      00FF8221H   LINE      CODE     ---       #135
      ---         BLOCKEND  ---      ---       LVL=0
      00000B97H   SYMBOL    EDATA    INT       spi_n
      00000BE0H   SYMBOL    EDATA    BYTE      mode

      ---         MODULE    ---      ---       zf_tim
      00FF6CC7H   PUBLIC    CODE     ---       ctimer_count_read
      00FF699BH   PUBLIC    CODE     ---       pit_timer_ms
      00FF79E8H   PUBLIC    CODE     ---       ctimer_count_init
      00FF7772H   PUBLIC    CODE     ---       ctimer_count_clean
      000000D0H   SFRSYM    DATA     BYTE      PSW
      0000009DH   SFRSYM    DATA     BYTE      IRCBAND
      00000097H   SFRSYM    DATA     BYTE      AUXR2
      000000EFH   SFRSYM    DATA     BYTE      AUXINTIF
      000000FDH   SFRSYM    DATA     BYTE      S4CON
      000000ACH   SFRSYM    DATA     BYTE      S3CON
      0000009AH   SFRSYM    DATA     BYTE      S2CON
      000000B7H   SFRSYM    DATA     BYTE      IPH
      000000CDH   SFRSYM    DATA     BYTE      SPSTAT
      000000DDH   SFRSYM    DATA     BYTE      T4T3M
      000000C1H   SFRSYM    DATA     BYTE      WDT_CONTR
      00000088H.6 SFRSYM    DATA     BIT       TR1
      00000088H.4 SFRSYM    DATA     BIT       TR0
      000000D3H   SFRSYM    DATA     BYTE      T4L
      000000D5H   SFRSYM    DATA     BYTE      T3L
      000000D7H   SFRSYM    DATA     BYTE      T2L
      0000008BH   SFRSYM    DATA     BYTE      TL1
      0000008AH   SFRSYM    DATA     BYTE      TL0
      000000D2H   SFRSYM    DATA     BYTE      T4H
      000000D4H   SFRSYM    DATA     BYTE      T3H
      000000D6H   SFRSYM    DATA     BYTE      T2H
      0000008DH   SFRSYM    DATA     BYTE      TH1
      0000008CH   SFRSYM    DATA     BYTE      TH0
      000000DFH   SFRSYM    DATA     BYTE      IP3
      000000F4H   SFRSYM    DATA     BYTE      USBCON
      000000B5H   SFRSYM    DATA     BYTE      IP2
      000000FFH   SFRSYM    DATA     BYTE      RSTCFG
L251 LINKER/LOCATER V4.66.93.0                                                        07/19/2023  21:09:12  PAGE 46


      000000A8H.3 SFRSYM    DATA     BIT       ET1
      000000A8H.1 SFRSYM    DATA     BIT       ET0
      000000F9H   SFRSYM    DATA     BYTE      LINICR
      0000008EH   SFRSYM    DATA     BYTE      AUXR
      000000AFH   SFRSYM    DATA     BYTE      IE2
      00000088H   SFRSYM    DATA     BYTE      TCON
      00000089H   SFRSYM    DATA     BYTE      TMOD
      00000098H   SFRSYM    DATA     BYTE      SCON
      000000F1H   SFRSYM    DATA     BYTE      CANICR
      00000087H   SFRSYM    DATA     BYTE      PCON
      000000BCH   SFRSYM    DATA     BYTE      ADC_CONTR
      000000E7H   SFRSYM    DATA     BYTE      CMPCR2
      000000E6H   SFRSYM    DATA     BYTE      CMPCR1
      000000B8H   SFRSYM    DATA     BYTE      IP
      0000008FH   SFRSYM    DATA     BYTE      INTCLKO
      000000EEH   SFRSYM    DATA     BYTE      IP3H
      000000B6H   SFRSYM    DATA     BYTE      IP2H
      000000A8H   SFRSYM    DATA     BYTE      IE
      000000BBH   SFRSYM    DATA     BYTE      P_SW3
      000000BAH   SFRSYM    DATA     BYTE      P_SW2
      000000A2H   SFRSYM    DATA     BYTE      P_SW1
      000000CEH   SFRSYM    DATA     BYTE      SPCTL
      000000F8H   SFRSYM    DATA     BYTE      P7
      000000E8H   SFRSYM    DATA     BYTE      P6
      000000C8H   SFRSYM    DATA     BYTE      P5
      000000C0H   SFRSYM    DATA     BYTE      P4
      000000B0H   SFRSYM    DATA     BYTE      P3
      000000A0H   SFRSYM    DATA     BYTE      P2
      00000090H   SFRSYM    DATA     BYTE      P1
      00000080H   SFRSYM    DATA     BYTE      P0

      00FF79E8H   BLOCK     CODE     ---       LVL=0
      00000B99H   SYMBOL    EDATA    INT       tim_n
      00FF79E8H   LINE      CODE     ---       #39
      00FF79ECH   LINE      CODE     ---       #42
      00FF7A00H   LINE      CODE     ---       #44
      00FF7A00H   LINE      CODE     ---       #46
      00FF7A03H   LINE      CODE     ---       #47
      00FF7A06H   LINE      CODE     ---       #48
      00FF7A09H   LINE      CODE     ---       #49
      00FF7A0CH   LINE      CODE     ---       #50
      00FF7A0EH   LINE      CODE     ---       #53
      00FF7A0EH   LINE      CODE     ---       #55
      00FF7A11H   LINE      CODE     ---       #56
      00FF7A14H   LINE      CODE     ---       #57
      00FF7A17H   LINE      CODE     ---       #58
      00FF7A1AH   LINE      CODE     ---       #59
      00FF7A1CH   LINE      CODE     ---       #62
      00FF7A1CH   LINE      CODE     ---       #64
      00FF7A1FH   LINE      CODE     ---       #65
      00FF7A22H   LINE      CODE     ---       #66
      00FF7A25H   LINE      CODE     ---       #67
      00FF7A27H   LINE      CODE     ---       #70
      00FF7A27H   LINE      CODE     ---       #72
      00FF7A2AH   LINE      CODE     ---       #73
      00FF7A2DH   LINE      CODE     ---       #74
      00FF7A30H   LINE      CODE     ---       #75
      00FF7A32H   LINE      CODE     ---       #78
      00FF7A32H   LINE      CODE     ---       #80
      00FF7A35H   LINE      CODE     ---       #81
      00FF7A38H   LINE      CODE     ---       #82
      00FF7A3BH   LINE      CODE     ---       #83
      00FF7A3BH   LINE      CODE     ---       #86
      00FF7A3BH   LINE      CODE     ---       #87
      ---         BLOCKEND  ---      ---       LVL=0
L251 LINKER/LOCATER V4.66.93.0                                                        07/19/2023  21:09:12  PAGE 47



      00FF6CC7H   BLOCK     CODE     ---       LVL=0
      00000B10H   SYMBOL    EDATA    INT       tim_n
      00FF6CCBH   BLOCK     CODE     NEAR LAB  LVL=1
      00000B12H   SYMBOL    EDATA    WORD      dat
      ---         BLOCKEND  ---      ---       LVL=1
      00FF6CC7H   LINE      CODE     ---       #95
      00FF6CCBH   LINE      CODE     ---       #96
      00FF6CCBH   LINE      CODE     ---       #97
      00FF6CD1H   LINE      CODE     ---       #99
      00FF6CECH   LINE      CODE     ---       #101
      00FF6CECH   LINE      CODE     ---       #103
      00FF6CF8H   LINE      CODE     ---       #104
      00FF6D06H   LINE      CODE     ---       #105
      00FF6D08H   LINE      CODE     ---       #107
      00FF6D08H   LINE      CODE     ---       #109
      00FF6D14H   LINE      CODE     ---       #110
      00FF6D22H   LINE      CODE     ---       #111
      00FF6D24H   LINE      CODE     ---       #113
      00FF6D24H   LINE      CODE     ---       #115
      00FF6D30H   LINE      CODE     ---       #116
      00FF6D3EH   LINE      CODE     ---       #117
      00FF6D40H   LINE      CODE     ---       #119
      00FF6D40H   LINE      CODE     ---       #121
      00FF6D4CH   LINE      CODE     ---       #122
      00FF6D5AH   LINE      CODE     ---       #123
      00FF6D5CH   LINE      CODE     ---       #125
      00FF6D5CH   LINE      CODE     ---       #127
      00FF6D68H   LINE      CODE     ---       #128
      00FF6D76H   LINE      CODE     ---       #129
      00FF6D76H   LINE      CODE     ---       #132
      00FF6D76H   LINE      CODE     ---       #133
      00FF6D7AH   LINE      CODE     ---       #134
      ---         BLOCKEND  ---      ---       LVL=0

      00FF7772H   BLOCK     CODE     ---       LVL=0
      00000B9BH   SYMBOL    EDATA    INT       tim_n
      00FF7772H   LINE      CODE     ---       #143
      00FF7776H   LINE      CODE     ---       #145
      00FF778AH   LINE      CODE     ---       #147
      00FF778AH   LINE      CODE     ---       #149
      00FF778DH   LINE      CODE     ---       #150
      00FF7790H   LINE      CODE     ---       #151
      00FF7793H   LINE      CODE     ---       #152
      00FF7796H   LINE      CODE     ---       #153
      00FF7798H   LINE      CODE     ---       #155
      00FF7798H   LINE      CODE     ---       #157
      00FF779BH   LINE      CODE     ---       #158
      00FF779EH   LINE      CODE     ---       #159
      00FF77A1H   LINE      CODE     ---       #160
      00FF77A4H   LINE      CODE     ---       #161
      00FF77A6H   LINE      CODE     ---       #163
      00FF77A6H   LINE      CODE     ---       #165
      00FF77A9H   LINE      CODE     ---       #166
      00FF77ACH   LINE      CODE     ---       #167
      00FF77AFH   LINE      CODE     ---       #168
      00FF77B2H   LINE      CODE     ---       #169
      00FF77B4H   LINE      CODE     ---       #171
      00FF77B4H   LINE      CODE     ---       #173
      00FF77B7H   LINE      CODE     ---       #174
      00FF77BAH   LINE      CODE     ---       #175
      00FF77BDH   LINE      CODE     ---       #176
      00FF77C0H   LINE      CODE     ---       #177
      00FF77C2H   LINE      CODE     ---       #179
      00FF77C2H   LINE      CODE     ---       #181
L251 LINKER/LOCATER V4.66.93.0                                                        07/19/2023  21:09:12  PAGE 48


      00FF77C5H   LINE      CODE     ---       #182
      00FF77C8H   LINE      CODE     ---       #183
      00FF77CBH   LINE      CODE     ---       #184
      00FF77CEH   LINE      CODE     ---       #185
      00FF77CEH   LINE      CODE     ---       #187
      00FF77CEH   LINE      CODE     ---       #188
      ---         BLOCKEND  ---      ---       LVL=0

      00FF699BH   BLOCK     CODE     ---       LVL=0
      00000A33H   SYMBOL    EDATA    INT       tim_n
      00000A35H   SYMBOL    EDATA    WORD      time_ms
      00FF69A3H   BLOCK     CODE     NEAR LAB  LVL=1
      00000A37H   SYMBOL    EDATA    WORD      temp
      ---         BLOCKEND  ---      ---       LVL=1
      00FF699BH   LINE      CODE     ---       #198
      00FF69A3H   LINE      CODE     ---       #199
      00FF69A3H   LINE      CODE     ---       #201
      00FF69C6H   LINE      CODE     ---       #203
      00FF69D0H   LINE      CODE     ---       #205
      00FF69D4H   LINE      CODE     ---       #206
      00FF69DAH   LINE      CODE     ---       #207
      00FF69E4H   LINE      CODE     ---       #208
      00FF69E7H   LINE      CODE     ---       #209
      00FF69EAH   LINE      CODE     ---       #210
      00FF69EDH   LINE      CODE     ---       #211
      00FF69F9H   LINE      CODE     ---       #213
      00FF69FDH   LINE      CODE     ---       #214
      00FF6A03H   LINE      CODE     ---       #215
      00FF6A0DH   LINE      CODE     ---       #216
      00FF6A10H   LINE      CODE     ---       #217
      00FF6A13H   LINE      CODE     ---       #218
      00FF6A15H   LINE      CODE     ---       #219
      00FF6A21H   LINE      CODE     ---       #221
      00FF6A27H   LINE      CODE     ---       #222
      00FF6A31H   LINE      CODE     ---       #223
      00FF6A34H   LINE      CODE     ---       #224
      00FF6A37H   LINE      CODE     ---       #225
      00FF6A39H   LINE      CODE     ---       #226
      00FF6A45H   LINE      CODE     ---       #228
      00FF6A4BH   LINE      CODE     ---       #229
      00FF6A55H   LINE      CODE     ---       #230
      00FF6A58H   LINE      CODE     ---       #231
      00FF6A5BH   LINE      CODE     ---       #232
      00FF6A5DH   LINE      CODE     ---       #233
      00FF6A69H   LINE      CODE     ---       #235
      00FF6A6FH   LINE      CODE     ---       #236
      00FF6A79H   LINE      CODE     ---       #237
      00FF6A7CH   LINE      CODE     ---       #238
      00FF6A7FH   LINE      CODE     ---       #239
      ---         BLOCKEND  ---      ---       LVL=0

      ---         MODULE    ---      ---       zf_uart
      00FF72DCH   PUBLIC    CODE     ---       uart_putchar
      00FF4F47H   PUBLIC    CODE     ---       uart_init
      00000ADBH   PUBLIC    EDATA    ---       busy
      00000629H   PUBLIC    EDATA    BYTE      ?uart_init?BYTE
      000000D0H   SFRSYM    DATA     BYTE      PSW
      0000009DH   SFRSYM    DATA     BYTE      IRCBAND
      00000097H   SFRSYM    DATA     BYTE      AUXR2
      000000EFH   SFRSYM    DATA     BYTE      AUXINTIF
      000000FDH   SFRSYM    DATA     BYTE      S4CON
      000000ACH   SFRSYM    DATA     BYTE      S3CON
      0000009AH   SFRSYM    DATA     BYTE      S2CON
      000000FEH   SFRSYM    DATA     BYTE      S4BUF
      000000ADH   SFRSYM    DATA     BYTE      S3BUF
L251 LINKER/LOCATER V4.66.93.0                                                        07/19/2023  21:09:12  PAGE 49


      0000009BH   SFRSYM    DATA     BYTE      S2BUF
      000000B7H   SFRSYM    DATA     BYTE      IPH
      000000CDH   SFRSYM    DATA     BYTE      SPSTAT
      000000DDH   SFRSYM    DATA     BYTE      T4T3M
      000000C1H   SFRSYM    DATA     BYTE      WDT_CONTR
      00000088H.6 SFRSYM    DATA     BIT       TR1
      000000D3H   SFRSYM    DATA     BYTE      T4L
      000000D5H   SFRSYM    DATA     BYTE      T3L
      000000D7H   SFRSYM    DATA     BYTE      T2L
      0000008BH   SFRSYM    DATA     BYTE      TL1
      000000D2H   SFRSYM    DATA     BYTE      T4H
      000000D4H   SFRSYM    DATA     BYTE      T3H
      000000D6H   SFRSYM    DATA     BYTE      T2H
      0000008DH   SFRSYM    DATA     BYTE      TH1
      000000DFH   SFRSYM    DATA     BYTE      IP3
      000000F4H   SFRSYM    DATA     BYTE      USBCON
      000000B5H   SFRSYM    DATA     BYTE      IP2
      000000FFH   SFRSYM    DATA     BYTE      RSTCFG
      000000F9H   SFRSYM    DATA     BYTE      LINICR
      0000008EH   SFRSYM    DATA     BYTE      AUXR
      000000AFH   SFRSYM    DATA     BYTE      IE2
      00000088H   SFRSYM    DATA     BYTE      TCON
      00000089H   SFRSYM    DATA     BYTE      TMOD
      00000098H   SFRSYM    DATA     BYTE      SCON
      000000F1H   SFRSYM    DATA     BYTE      CANICR
      00000087H   SFRSYM    DATA     BYTE      PCON
      00000099H   SFRSYM    DATA     BYTE      SBUF
      000000BCH   SFRSYM    DATA     BYTE      ADC_CONTR
      000000E7H   SFRSYM    DATA     BYTE      CMPCR2
      000000E6H   SFRSYM    DATA     BYTE      CMPCR1
      000000B8H   SFRSYM    DATA     BYTE      IP
      000000A8H.4 SFRSYM    DATA     BIT       ES
      0000008FH   SFRSYM    DATA     BYTE      INTCLKO
      000000EEH   SFRSYM    DATA     BYTE      IP3H
      000000B6H   SFRSYM    DATA     BYTE      IP2H
      000000A8H   SFRSYM    DATA     BYTE      IE
      000000BBH   SFRSYM    DATA     BYTE      P_SW3
      000000BAH   SFRSYM    DATA     BYTE      P_SW2
      000000A2H   SFRSYM    DATA     BYTE      P_SW1
      000000CEH   SFRSYM    DATA     BYTE      SPCTL
      000000F8H   SFRSYM    DATA     BYTE      P7
      000000E8H   SFRSYM    DATA     BYTE      P6
      000000C8H   SFRSYM    DATA     BYTE      P5
      000000C0H   SFRSYM    DATA     BYTE      P4
      000000C9H   SFRSYM    DATA     BYTE      P5M1
      000000B0H   SFRSYM    DATA     BYTE      P3
      000000CAH   SFRSYM    DATA     BYTE      P5M0
      000000A0H   SFRSYM    DATA     BYTE      P2
      00000090H   SFRSYM    DATA     BYTE      P1
      00000080H   SFRSYM    DATA     BYTE      P0

      00FF4F47H   BLOCK     CODE     ---       LVL=0
      00000629H   SYMBOL    EDATA    INT       uart_n
      0000062BH   SYMBOL    EDATA    INT       uart_rx_pin
      0000062DH   SYMBOL    EDATA    INT       uart_tx_pin
      0000062FH   SYMBOL    EDATA    DWORD     baud
      00000633H   SYMBOL    EDATA    INT       tim_n
      00FF4F57H   BLOCK     CODE     NEAR LAB  LVL=1
      00000635H   SYMBOL    EDATA    WORD      brt
      ---         BLOCKEND  ---      ---       LVL=1
      00FF4F47H   LINE      CODE     ---       #47
      00FF4F57H   LINE      CODE     ---       #48
      00FF4F57H   LINE      CODE     ---       #51
      00FF4F7EH   LINE      CODE     ---       #54
      00FF4FA0H   LINE      CODE     ---       #56
L251 LINKER/LOCATER V4.66.93.0                                                        07/19/2023  21:09:12  PAGE 50


      00FF4FA0H   LINE      CODE     ---       #58
      00FF4FACH   LINE      CODE     ---       #60
      00FF4FAFH   LINE      CODE     ---       #61
      00FF4FB3H   LINE      CODE     ---       #62
      00FF4FB9H   LINE      CODE     ---       #63
      00FF4FC3H   LINE      CODE     ---       #64
      00FF4FC6H   LINE      CODE     ---       #65
      00FF4FC9H   LINE      CODE     ---       #66
      00FF4FCEH   LINE      CODE     ---       #67
      00FF4FD0H   LINE      CODE     ---       #68
      00FF4FDCH   LINE      CODE     ---       #70
      00FF4FDFH   LINE      CODE     ---       #71
      00FF4FE5H   LINE      CODE     ---       #72
      00FF4FEFH   LINE      CODE     ---       #73
      00FF4FF2H   LINE      CODE     ---       #74
      00FF4FF2H   LINE      CODE     ---       #75
      00FF4FF5H   LINE      CODE     ---       #76
      00FF500BH   LINE      CODE     ---       #78
      00FF500FH   LINE      CODE     ---       #79
      00FF5011H   LINE      CODE     ---       #80
      00FF5029H   LINE      CODE     ---       #82
      00FF502CH   LINE      CODE     ---       #83
      00FF502EH   LINE      CODE     ---       #84
      00FF5046H   LINE      CODE     ---       #86
      00FF5049H   LINE      CODE     ---       #87
      00FF504BH   LINE      CODE     ---       #88
      00FF5063H   LINE      CODE     ---       #90
      00FF5066H   LINE      CODE     ---       #91
      00FF5066H   LINE      CODE     ---       #92
      00FF506BH   LINE      CODE     ---       #93
      00FF506EH   LINE      CODE     ---       #94
      00FF5071H   LINE      CODE     ---       #97
      00FF5071H   LINE      CODE     ---       #99
      00FF507DH   LINE      CODE     ---       #101
      00FF5080H   LINE      CODE     ---       #102
      00FF5086H   LINE      CODE     ---       #103
      00FF5090H   LINE      CODE     ---       #104
      00FF5093H   LINE      CODE     ---       #105
      00FF5093H   LINE      CODE     ---       #107
      00FF5096H   LINE      CODE     ---       #108
      00FF50AEH   LINE      CODE     ---       #110
      00FF50B2H   LINE      CODE     ---       #111
      00FF50B4H   LINE      CODE     ---       #112
      00FF50CCH   LINE      CODE     ---       #114
      00FF50CFH   LINE      CODE     ---       #115
      00FF50CFH   LINE      CODE     ---       #117
      00FF50D2H   LINE      CODE     ---       #118
      00FF50D7H   LINE      CODE     ---       #119
      00FF50DAH   LINE      CODE     ---       #122
      00FF50DAH   LINE      CODE     ---       #124
      00FF50E6H   LINE      CODE     ---       #126
      00FF50E9H   LINE      CODE     ---       #127
      00FF50EFH   LINE      CODE     ---       #128
      00FF50F9H   LINE      CODE     ---       #129
      00FF50FCH   LINE      CODE     ---       #130
      00FF50FEH   LINE      CODE     ---       #131
      00FF510AH   LINE      CODE     ---       #133
      00FF510DH   LINE      CODE     ---       #134
      00FF5113H   LINE      CODE     ---       #135
      00FF511DH   LINE      CODE     ---       #136
      00FF5120H   LINE      CODE     ---       #137
      00FF5120H   LINE      CODE     ---       #139
      00FF5123H   LINE      CODE     ---       #140
      00FF513BH   LINE      CODE     ---       #142
      00FF513FH   LINE      CODE     ---       #143
L251 LINKER/LOCATER V4.66.93.0                                                        07/19/2023  21:09:12  PAGE 51


      00FF5141H   LINE      CODE     ---       #144
      00FF5159H   LINE      CODE     ---       #146
      00FF515CH   LINE      CODE     ---       #147
      00FF515CH   LINE      CODE     ---       #149
      00FF515FH   LINE      CODE     ---       #150
      00FF5164H   LINE      CODE     ---       #151
      00FF5167H   LINE      CODE     ---       #154
      00FF5167H   LINE      CODE     ---       #156
      00FF5173H   LINE      CODE     ---       #158
      00FF5176H   LINE      CODE     ---       #159
      00FF517CH   LINE      CODE     ---       #160
      00FF5186H   LINE      CODE     ---       #161
      00FF5189H   LINE      CODE     ---       #162
      00FF518BH   LINE      CODE     ---       #163
      00FF5197H   LINE      CODE     ---       #165
      00FF519AH   LINE      CODE     ---       #166
      00FF51A0H   LINE      CODE     ---       #167
      00FF51AAH   LINE      CODE     ---       #168
      00FF51ADH   LINE      CODE     ---       #169
      00FF51ADH   LINE      CODE     ---       #171
      00FF51B0H   LINE      CODE     ---       #172
      00FF51C8H   LINE      CODE     ---       #174
      00FF51CCH   LINE      CODE     ---       #175
      00FF51CEH   LINE      CODE     ---       #176
      00FF51E6H   LINE      CODE     ---       #178
      00FF51E9H   LINE      CODE     ---       #179
      00FF51EDH   LINE      CODE     ---       #180
      00FF51F0H   LINE      CODE     ---       #181
      00FF51F0H   LINE      CODE     ---       #182
      00FF51F3H   LINE      CODE     ---       #183
      00FF51F8H   LINE      CODE     ---       #184
      00FF51F8H   LINE      CODE     ---       #187
      00FF51F8H   LINE      CODE     ---       #189
      ---         BLOCKEND  ---      ---       LVL=0

      00FF72DCH   BLOCK     CODE     ---       LVL=0
      00000B5BH   SYMBOL    EDATA    INT       uart_n
      00000B5DH   SYMBOL    EDATA    BYTE      dat
      00FF72DCH   LINE      CODE     ---       #198
      00FF72E4H   LINE      CODE     ---       #200
      00FF72F6H   LINE      CODE     ---       #202
      00FF72F6H   LINE      CODE     ---       #203
      00FF72FFH   LINE      CODE     ---       #204
      00FF7305H   LINE      CODE     ---       #205
      00FF730BH   LINE      CODE     ---       #206
      00FF730DH   LINE      CODE     ---       #207
      00FF730DH   LINE      CODE     ---       #208
      00FF7316H   LINE      CODE     ---       #209
      00FF731CH   LINE      CODE     ---       #210
      00FF7322H   LINE      CODE     ---       #211
      00FF7324H   LINE      CODE     ---       #212
      00FF7324H   LINE      CODE     ---       #213
      00FF732DH   LINE      CODE     ---       #214
      00FF7333H   LINE      CODE     ---       #215
      00FF7339H   LINE      CODE     ---       #216
      00FF733BH   LINE      CODE     ---       #217
      00FF733BH   LINE      CODE     ---       #218
      00FF7344H   LINE      CODE     ---       #219
      00FF734AH   LINE      CODE     ---       #220
      00FF7350H   LINE      CODE     ---       #221
      00FF7350H   LINE      CODE     ---       #222
      00FF7350H   LINE      CODE     ---       #223
      ---         BLOCKEND  ---      ---       LVL=0
      0000095EH   SYMBOL    EDATA    INT       uart_n
      00000960H   SYMBOL    EDATA    ---       p
L251 LINKER/LOCATER V4.66.93.0                                                        07/19/2023  21:09:12  PAGE 52


      00000964H   SYMBOL    EDATA    WORD      len
      00000A39H   SYMBOL    EDATA    INT       uart_n
      00000A3BH   SYMBOL    EDATA    ---       str

      ---         MODULE    ---      ---       zf_fifo
      00FF750DH   PUBLIC    CODE     ---       fifo_head_offset
      00FF6107H   PUBLIC    CODE     ---       fifo_write_buffer
      00000688H   PUBLIC    EDATA    BYTE      ?fifo_init?BYTE
      0000060BH   PUBLIC    EDATA    BYTE      ?fifo_write_buffer?BYTE
      000005C2H   PUBLIC    EDATA    BYTE      ?fifo_read_buffer?BYTE
      000000D0H   SFRSYM    DATA     BYTE      PSW
      0000009DH   SFRSYM    DATA     BYTE      IRCBAND
      00000097H   SFRSYM    DATA     BYTE      AUXR2
      000000EFH   SFRSYM    DATA     BYTE      AUXINTIF
      000000FDH   SFRSYM    DATA     BYTE      S4CON
      000000ACH   SFRSYM    DATA     BYTE      S3CON
      0000009AH   SFRSYM    DATA     BYTE      S2CON
      000000B7H   SFRSYM    DATA     BYTE      IPH
      000000CDH   SFRSYM    DATA     BYTE      SPSTAT
      000000DDH   SFRSYM    DATA     BYTE      T4T3M
      000000C1H   SFRSYM    DATA     BYTE      WDT_CONTR
      000000DFH   SFRSYM    DATA     BYTE      IP3
      000000F4H   SFRSYM    DATA     BYTE      USBCON
      000000B5H   SFRSYM    DATA     BYTE      IP2
      000000FFH   SFRSYM    DATA     BYTE      RSTCFG
      000000F9H   SFRSYM    DATA     BYTE      LINICR
      0000008EH   SFRSYM    DATA     BYTE      AUXR
      000000AFH   SFRSYM    DATA     BYTE      IE2
      00000088H   SFRSYM    DATA     BYTE      TCON
      00000098H   SFRSYM    DATA     BYTE      SCON
      000000F1H   SFRSYM    DATA     BYTE      CANICR
      00000087H   SFRSYM    DATA     BYTE      PCON
      000000BCH   SFRSYM    DATA     BYTE      ADC_CONTR
      000000E7H   SFRSYM    DATA     BYTE      CMPCR2
      000000E6H   SFRSYM    DATA     BYTE      CMPCR1
      000000B8H   SFRSYM    DATA     BYTE      IP
      0000008FH   SFRSYM    DATA     BYTE      INTCLKO
      000000EEH   SFRSYM    DATA     BYTE      IP3H
      000000B6H   SFRSYM    DATA     BYTE      IP2H
      000000A8H   SFRSYM    DATA     BYTE      IE
      000000BBH   SFRSYM    DATA     BYTE      P_SW3
      000000BAH   SFRSYM    DATA     BYTE      P_SW2
      000000A2H   SFRSYM    DATA     BYTE      P_SW1
      000000CEH   SFRSYM    DATA     BYTE      SPCTL
      000000F8H   SFRSYM    DATA     BYTE      P7
      000000E8H   SFRSYM    DATA     BYTE      P6
      000000C8H   SFRSYM    DATA     BYTE      P5
      000000C0H   SFRSYM    DATA     BYTE      P4
      000000B0H   SFRSYM    DATA     BYTE      P3
      000000A0H   SFRSYM    DATA     BYTE      P2
      00000090H   SFRSYM    DATA     BYTE      P1
      00000080H   SFRSYM    DATA     BYTE      P0
      00000688H   SYMBOL    EDATA    ---       fifo
      0000068CH   SYMBOL    EDATA    ---       buffer_addr
      00000690H   SYMBOL    EDATA    DWORD     size

      00FF750DH   BLOCK     CODE     ---       LVL=0
      00000966H   SYMBOL    EDATA    ---       fifo
      0000096AH   SYMBOL    EDATA    DWORD     offset
      00FF750DH   LINE      CODE     ---       #61
      00FF7515H   LINE      CODE     ---       #63
      00FF752FH   LINE      CODE     ---       #65
      00FF7531H   LINE      CODE     ---       #67
      00FF7556H   LINE      CODE     ---       #68
      00FF7576H   LINE      CODE     ---       #69
L251 LINKER/LOCATER V4.66.93.0                                                        07/19/2023  21:09:12  PAGE 53


      ---         BLOCKEND  ---      ---       LVL=0
      0000096EH   SYMBOL    EDATA    ---       fifo
      00000972H   SYMBOL    EDATA    DWORD     offset
      00000B14H   SYMBOL    EDATA    ---       fifo
      00000B18H   SYMBOL    EDATA    ---       fifo

      00FF6107H   BLOCK     CODE     ---       LVL=0
      0000060BH   SYMBOL    EDATA    ---       fifo
      0000060FH   SYMBOL    EDATA    ---       dat
      00000613H   SYMBOL    EDATA    DWORD     length
      00FF610FH   BLOCK     CODE     NEAR LAB  LVL=1
      00000617H   SYMBOL    EDATA    DWORD     temp_length
      ---         BLOCKEND  ---      ---       LVL=1
      00FF6107H   LINE      CODE     ---       #120
      00FF610FH   LINE      CODE     ---       #121
      00FF610FH   LINE      CODE     ---       #124
      00FF6129H   LINE      CODE     ---       #126
      00FF614BH   LINE      CODE     ---       #128
      00FF615AH   LINE      CODE     ---       #130
      00FF6183H   LINE      CODE     ---       #131
      00FF618EH   LINE      CODE     ---       #132
      00FF619EH   LINE      CODE     ---       #133
      00FF61D1H   LINE      CODE     ---       #134
      00FF61E2H   LINE      CODE     ---       #135
      00FF61E4H   LINE      CODE     ---       #138
      00FF620DH   LINE      CODE     ---       #139
      00FF6218H   LINE      CODE     ---       #140
      00FF6218H   LINE      CODE     ---       #142
      00FF6234H   LINE      CODE     ---       #143
      00FF6236H   LINE      CODE     ---       #146
      00FF623CH   LINE      CODE     ---       #147
      00FF623CH   LINE      CODE     ---       #149
      00FF623EH   LINE      CODE     ---       #150
      ---         BLOCKEND  ---      ---       LVL=0
      000005C2H   SYMBOL    EDATA    ---       fifo
      000005C6H   SYMBOL    EDATA    ---       dat
      000005CAH   SYMBOL    EDATA    ---       length
      000005CEH   SYMBOL    EDATA    INT       flag
      000005D0H   SYMBOL    EDATA    BYTE      data_check
      000005D1H   SYMBOL    EDATA    DWORD     temp_length

      ---         MODULE    ---      ---       SEEKFREE_18TFT
      00FF7B30H   PUBLIC    CODE     ---       lcd_writeIndex_simspi
      00FF7B7CH   PUBLIC    CODE     ---       lcd_writeData_simspi
      00FF8183H   PUBLIC    CODE     ---       lcd_writeIndex
      00FF8198H   PUBLIC    CODE     ---       lcd_writeData
      00000243H   PUBLIC    EDATA    BYTE      ?lcd_showfloat_simspi?BYTE
      00000273H   PUBLIC    EDATA    BYTE      ?lcd_showfloat?BYTE
      000000D0H   SFRSYM    DATA     BYTE      PSW
      0000009DH   SFRSYM    DATA     BYTE      IRCBAND
      00000097H   SFRSYM    DATA     BYTE      AUXR2
      000000EFH   SFRSYM    DATA     BYTE      AUXINTIF
      000000FDH   SFRSYM    DATA     BYTE      S4CON
      000000ACH   SFRSYM    DATA     BYTE      S3CON
      0000009AH   SFRSYM    DATA     BYTE      S2CON
      000000B7H   SFRSYM    DATA     BYTE      IPH
      000000CDH   SFRSYM    DATA     BYTE      SPSTAT
      000000DDH   SFRSYM    DATA     BYTE      T4T3M
      000000C1H   SFRSYM    DATA     BYTE      WDT_CONTR
      000000DFH   SFRSYM    DATA     BYTE      IP3
      000000F4H   SFRSYM    DATA     BYTE      USBCON
      000000B5H   SFRSYM    DATA     BYTE      IP2
      000000FFH   SFRSYM    DATA     BYTE      RSTCFG
      000000F9H   SFRSYM    DATA     BYTE      LINICR
      0000008EH   SFRSYM    DATA     BYTE      AUXR
L251 LINKER/LOCATER V4.66.93.0                                                        07/19/2023  21:09:12  PAGE 54


      000000AFH   SFRSYM    DATA     BYTE      IE2
      000000A0H.5 SFRSYM    DATA     BIT       P25
      00000088H   SFRSYM    DATA     BYTE      TCON
      000000A0H.3 SFRSYM    DATA     BIT       P23
      00000098H   SFRSYM    DATA     BYTE      SCON
      000000A0H.2 SFRSYM    DATA     BIT       P22
      000000A0H.1 SFRSYM    DATA     BIT       P21
      000000A0H.0 SFRSYM    DATA     BIT       P20
      000000F1H   SFRSYM    DATA     BYTE      CANICR
      00000087H   SFRSYM    DATA     BYTE      PCON
      000000BCH   SFRSYM    DATA     BYTE      ADC_CONTR
      000000E7H   SFRSYM    DATA     BYTE      CMPCR2
      000000E6H   SFRSYM    DATA     BYTE      CMPCR1
      000000B8H   SFRSYM    DATA     BYTE      IP
      0000008FH   SFRSYM    DATA     BYTE      INTCLKO
      000000EEH   SFRSYM    DATA     BYTE      IP3H
      000000B6H   SFRSYM    DATA     BYTE      IP2H
      000000A8H   SFRSYM    DATA     BYTE      IE
      000000BBH   SFRSYM    DATA     BYTE      P_SW3
      000000BAH   SFRSYM    DATA     BYTE      P_SW2
      000000A2H   SFRSYM    DATA     BYTE      P_SW1
      000000CEH   SFRSYM    DATA     BYTE      SPCTL
      000000F8H   SFRSYM    DATA     BYTE      P7
      000000E8H   SFRSYM    DATA     BYTE      P6
      000000C8H   SFRSYM    DATA     BYTE      P5
      000000C0H   SFRSYM    DATA     BYTE      P4
      000000B0H   SFRSYM    DATA     BYTE      P3
      000000A0H   SFRSYM    DATA     BYTE      P2
      00000090H   SFRSYM    DATA     BYTE      P1
      00000080H   SFRSYM    DATA     BYTE      P0

      00FF7B30H   BLOCK     CODE     ---       LVL=0
      00000B9DH   SYMBOL    EDATA    BYTE      dat
      00FF7B34H   BLOCK     CODE     NEAR LAB  LVL=1
      00000B9EH   SYMBOL    EDATA    BYTE      i
      ---         BLOCKEND  ---      ---       LVL=1
      00FF7B30H   LINE      CODE     ---       #60
      00FF7B34H   LINE      CODE     ---       #61
      00FF7B34H   LINE      CODE     ---       #62
      00FF7B3AH   LINE      CODE     ---       #64
      00FF7B3DH   LINE      CODE     ---       #65
      00FF7B40H   LINE      CODE     ---       #66
      00FF7B43H   LINE      CODE     ---       #68
      00FF7B45H   LINE      CODE     ---       #70
      00FF7B51H   LINE      CODE     ---       #71
      00FF7B54H   LINE      CODE     ---       #72
      00FF7B57H   LINE      CODE     ---       #74
      00FF7B5AH   LINE      CODE     ---       #75
      00FF7B64H   LINE      CODE     ---       #76
      00FF7B78H   LINE      CODE     ---       #77
      00FF7B7BH   LINE      CODE     ---       #78
      ---         BLOCKEND  ---      ---       LVL=0

      00FF7B7CH   BLOCK     CODE     ---       LVL=0
      00000B9FH   SYMBOL    EDATA    BYTE      dat
      00FF7B80H   BLOCK     CODE     NEAR LAB  LVL=1
      00000BA0H   SYMBOL    EDATA    BYTE      i
      ---         BLOCKEND  ---      ---       LVL=1
      00FF7B7CH   LINE      CODE     ---       #87
      00FF7B80H   LINE      CODE     ---       #88
      00FF7B80H   LINE      CODE     ---       #89
      00FF7B86H   LINE      CODE     ---       #91
      00FF7B89H   LINE      CODE     ---       #92
      00FF7B8CH   LINE      CODE     ---       #93
      00FF7B8FH   LINE      CODE     ---       #94
L251 LINKER/LOCATER V4.66.93.0                                                        07/19/2023  21:09:12  PAGE 55


      00FF7B91H   LINE      CODE     ---       #96
      00FF7B9DH   LINE      CODE     ---       #97
      00FF7BA0H   LINE      CODE     ---       #98
      00FF7BA3H   LINE      CODE     ---       #100
      00FF7BA6H   LINE      CODE     ---       #101
      00FF7BB0H   LINE      CODE     ---       #102
      00FF7BC4H   LINE      CODE     ---       #103
      00FF7BC7H   LINE      CODE     ---       #104
      ---         BLOCKEND  ---      ---       LVL=0
      00000B5EH   SYMBOL    EDATA    WORD      dat
      00000B60H   SYMBOL    EDATA    BYTE      i
      00000976H   SYMBOL    EDATA    WORD      x_start
      00000978H   SYMBOL    EDATA    WORD      y_start
      0000097AH   SYMBOL    EDATA    WORD      x_end
      0000097CH   SYMBOL    EDATA    WORD      y_end
      00000B1CH   SYMBOL    EDATA    INT       color
      00000B1EH   SYMBOL    EDATA    BYTE      i
      00000B1FH   SYMBOL    EDATA    BYTE      j
      00000A3FH   SYMBOL    EDATA    WORD      x
      00000A41H   SYMBOL    EDATA    WORD      y
      00000A43H   SYMBOL    EDATA    WORD      color
      0000097EH   SYMBOL    EDATA    WORD      x
      00000980H   SYMBOL    EDATA    WORD      y
      00000982H   SYMBOL    EDATA    CHAR      dat
      00000983H   SYMBOL    EDATA    BYTE      i
      00000984H   SYMBOL    EDATA    BYTE      j
      00000985H   SYMBOL    EDATA    BYTE      temp
      000007C8H   SYMBOL    EDATA    WORD      x
      000007CAH   SYMBOL    EDATA    WORD      y
      000007CCH   SYMBOL    EDATA    ---       dat
      000007D0H   SYMBOL    EDATA    WORD      j
      00000840H   SYMBOL    EDATA    WORD      x
      00000842H   SYMBOL    EDATA    WORD      y
      00000844H   SYMBOL    EDATA    CHAR      dat
      00000845H   SYMBOL    EDATA    ---       a
      00000848H   SYMBOL    EDATA    BYTE      i
      00000849H   SYMBOL    EDATA    WORD      x
      0000084BH   SYMBOL    EDATA    WORD      y
      0000084DH   SYMBOL    EDATA    BYTE      dat
      0000084EH   SYMBOL    EDATA    ---       a
      00000851H   SYMBOL    EDATA    BYTE      i
      00000694H   SYMBOL    EDATA    WORD      x
      00000696H   SYMBOL    EDATA    WORD      y
      00000698H   SYMBOL    EDATA    INT       dat
      0000069AH   SYMBOL    EDATA    ---       a
      0000069FH   SYMBOL    EDATA    BYTE      i
      000006A0H   SYMBOL    EDATA    WORD      x
      000006A2H   SYMBOL    EDATA    WORD      y
      000006A4H   SYMBOL    EDATA    WORD      dat
      000006A6H   SYMBOL    EDATA    ---       a
      000006ABH   SYMBOL    EDATA    BYTE      i
      000003F2H   SYMBOL    EDATA    WORD      x
      000003F4H   SYMBOL    EDATA    WORD      y
      000003F6H   SYMBOL    EDATA    LONG      dat
      000003FAH   SYMBOL    EDATA    BYTE      num
      000003FBH   SYMBOL    EDATA    ---       buff
      0000041DH   SYMBOL    EDATA    BYTE      length
      00000243H   SYMBOL    EDATA    WORD      x
      00000245H   SYMBOL    EDATA    WORD      y
      00000247H   SYMBOL    EDATA    FLOAT     dat
      0000024BH   SYMBOL    EDATA    BYTE      num
      0000024CH   SYMBOL    EDATA    BYTE      pointnum
      0000024DH   SYMBOL    EDATA    BYTE      length
      0000024EH   SYMBOL    EDATA    ---       buff
      00000270H   SYMBOL    EDATA    CHAR      start
L251 LINKER/LOCATER V4.66.93.0                                                        07/19/2023  21:09:12  PAGE 56


      00000271H   SYMBOL    EDATA    CHAR      end
      00000272H   SYMBOL    EDATA    CHAR      point

      00FF8183H   BLOCK     CODE     ---       LVL=0
      00000BE1H   SYMBOL    EDATA    BYTE      dat
      00FF8183H   LINE      CODE     ---       #607
      00FF8187H   LINE      CODE     ---       #610
      00FF818AH   LINE      CODE     ---       #611
      00FF818DH   LINE      CODE     ---       #612
      00FF8194H   LINE      CODE     ---       #613
      00FF8197H   LINE      CODE     ---       #614
      ---         BLOCKEND  ---      ---       LVL=0

      00FF8198H   BLOCK     CODE     ---       LVL=0
      00000BE2H   SYMBOL    EDATA    BYTE      dat
      00FF8198H   LINE      CODE     ---       #623
      00FF819CH   LINE      CODE     ---       #625
      00FF819FH   LINE      CODE     ---       #626
      00FF81A2H   LINE      CODE     ---       #627
      00FF81A9H   LINE      CODE     ---       #628
      00FF81ACH   LINE      CODE     ---       #629
      ---         BLOCKEND  ---      ---       LVL=0
      00000B20H   SYMBOL    EDATA    WORD      dat
      00000B22H   SYMBOL    EDATA    ---       dat1
      00000986H   SYMBOL    EDATA    WORD      x_start
      00000988H   SYMBOL    EDATA    WORD      y_start
      0000098AH   SYMBOL    EDATA    WORD      x_end
      0000098CH   SYMBOL    EDATA    WORD      y_end
      00000B24H   SYMBOL    EDATA    INT       color
      00000B26H   SYMBOL    EDATA    BYTE      i
      00000B27H   SYMBOL    EDATA    BYTE      j
      00000A45H   SYMBOL    EDATA    WORD      x
      00000A47H   SYMBOL    EDATA    WORD      y
      00000A49H   SYMBOL    EDATA    WORD      color
      0000098EH   SYMBOL    EDATA    WORD      x
      00000990H   SYMBOL    EDATA    WORD      y
      00000992H   SYMBOL    EDATA    CHAR      dat
      00000993H   SYMBOL    EDATA    BYTE      i
      00000994H   SYMBOL    EDATA    BYTE      j
      00000995H   SYMBOL    EDATA    BYTE      temp
      000007D2H   SYMBOL    EDATA    WORD      x
      000007D4H   SYMBOL    EDATA    WORD      y
      000007D6H   SYMBOL    EDATA    ---       dat
      000007DAH   SYMBOL    EDATA    WORD      j
      00000852H   SYMBOL    EDATA    WORD      x
      00000854H   SYMBOL    EDATA    WORD      y
      00000856H   SYMBOL    EDATA    CHAR      dat
      00000857H   SYMBOL    EDATA    ---       a
      0000085AH   SYMBOL    EDATA    BYTE      i
      0000085BH   SYMBOL    EDATA    WORD      x
      0000085DH   SYMBOL    EDATA    WORD      y
      0000085FH   SYMBOL    EDATA    BYTE      dat
      00000860H   SYMBOL    EDATA    ---       a
      00000863H   SYMBOL    EDATA    BYTE      i
      000006ACH   SYMBOL    EDATA    WORD      x
      000006AEH   SYMBOL    EDATA    WORD      y
      000006B0H   SYMBOL    EDATA    INT       dat
      000006B2H   SYMBOL    EDATA    ---       a
      000006B7H   SYMBOL    EDATA    BYTE      i
      000006B8H   SYMBOL    EDATA    WORD      x
      000006BAH   SYMBOL    EDATA    WORD      y
      000006BCH   SYMBOL    EDATA    WORD      dat
      000006BEH   SYMBOL    EDATA    ---       a
      000006C3H   SYMBOL    EDATA    BYTE      i
      0000041EH   SYMBOL    EDATA    WORD      x
L251 LINKER/LOCATER V4.66.93.0                                                        07/19/2023  21:09:12  PAGE 57


      00000420H   SYMBOL    EDATA    WORD      y
      00000422H   SYMBOL    EDATA    LONG      dat
      00000426H   SYMBOL    EDATA    BYTE      num
      00000427H   SYMBOL    EDATA    ---       buff
      00000449H   SYMBOL    EDATA    BYTE      length
      00000273H   SYMBOL    EDATA    WORD      x
      00000275H   SYMBOL    EDATA    WORD      y
      00000277H   SYMBOL    EDATA    FLOAT     dat
      0000027BH   SYMBOL    EDATA    BYTE      num
      0000027CH   SYMBOL    EDATA    BYTE      pointnum
      0000027DH   SYMBOL    EDATA    BYTE      length
      0000027EH   SYMBOL    EDATA    ---       buff
      000002A0H   SYMBOL    EDATA    CHAR      start
      000002A1H   SYMBOL    EDATA    CHAR      end
      000002A2H   SYMBOL    EDATA    CHAR      point
      000006C4H   SYMBOL    EDATA    ---       p
      000006C8H   SYMBOL    EDATA    INT       i
      000006CAH   SYMBOL    EDATA    INT       j
      000006CCH   SYMBOL    EDATA    INT       k
      000006CEH   SYMBOL    EDATA    BYTE      picH
      000006CFH   SYMBOL    EDATA    BYTE      picL

      ---         MODULE    ---      ---       SEEKFREE_BLUETOOTH_CH9141
      00FF0026H   PUBLIC    CODE     ---       bluetooth_ch9141_uart_callback
      000000D0H   SFRSYM    DATA     BYTE      PSW
      0000009DH   SFRSYM    DATA     BYTE      IRCBAND
      00000097H   SFRSYM    DATA     BYTE      AUXR2
      000000EFH   SFRSYM    DATA     BYTE      AUXINTIF
      000000FDH   SFRSYM    DATA     BYTE      S4CON
      000000ACH   SFRSYM    DATA     BYTE      S3CON
      0000009AH   SFRSYM    DATA     BYTE      S2CON
      000000FEH   SFRSYM    DATA     BYTE      S4BUF
      000000B7H   SFRSYM    DATA     BYTE      IPH
      000000CDH   SFRSYM    DATA     BYTE      SPSTAT
      000000DDH   SFRSYM    DATA     BYTE      T4T3M
      000000C1H   SFRSYM    DATA     BYTE      WDT_CONTR
      000000DFH   SFRSYM    DATA     BYTE      IP3
      000000F4H   SFRSYM    DATA     BYTE      USBCON
      000000B5H   SFRSYM    DATA     BYTE      IP2
      000000FFH   SFRSYM    DATA     BYTE      RSTCFG
      000000F9H   SFRSYM    DATA     BYTE      LINICR
      0000008EH   SFRSYM    DATA     BYTE      AUXR
      000000AFH   SFRSYM    DATA     BYTE      IE2
      00000080H.7 SFRSYM    DATA     BIT       P07
      00000088H   SFRSYM    DATA     BYTE      TCON
      00000098H   SFRSYM    DATA     BYTE      SCON
      000000F1H   SFRSYM    DATA     BYTE      CANICR
      00000087H   SFRSYM    DATA     BYTE      PCON
      000000BCH   SFRSYM    DATA     BYTE      ADC_CONTR
      000000E7H   SFRSYM    DATA     BYTE      CMPCR2
      000000E6H   SFRSYM    DATA     BYTE      CMPCR1
      000000B8H   SFRSYM    DATA     BYTE      IP
      0000008FH   SFRSYM    DATA     BYTE      INTCLKO
      000000EEH   SFRSYM    DATA     BYTE      IP3H
      000000B6H   SFRSYM    DATA     BYTE      IP2H
      000000A8H   SFRSYM    DATA     BYTE      IE
      000000BBH   SFRSYM    DATA     BYTE      P_SW3
      000000BAH   SFRSYM    DATA     BYTE      P_SW2
      000000A2H   SFRSYM    DATA     BYTE      P_SW1
      000000CEH   SFRSYM    DATA     BYTE      SPCTL
      000000F8H   SFRSYM    DATA     BYTE      P7
      000000E8H   SFRSYM    DATA     BYTE      P6
      000000C8H   SFRSYM    DATA     BYTE      P5
      000000C0H   SFRSYM    DATA     BYTE      P4
      000000B0H   SFRSYM    DATA     BYTE      P3
L251 LINKER/LOCATER V4.66.93.0                                                        07/19/2023  21:09:12  PAGE 58


      000000A0H   SFRSYM    DATA     BYTE      P2
      00000090H   SFRSYM    DATA     BYTE      P1
      00000080H   SFRSYM    DATA     BYTE      P0
      00000144H   SYMBOL    EDATA    ---       bluetooth_ch9141_buffer
      00000184H   SYMBOL    EDATA    BYTE      bluetooth_ch9141_data
      00000185H   SYMBOL    EDATA    ---       bluetooth_ch9141_fifo

      00FF0026H   BLOCK     CODE     ---       LVL=0
      00FF0026H   LINE      CODE     ---       #67
      00FF0026H   LINE      CODE     ---       #70
      00FF002CH   LINE      CODE     ---       #71
      00FF003FH   LINE      CODE     ---       #72
      ---         BLOCKEND  ---      ---       LVL=0
      000007DCH   SYMBOL    EDATA    ---       buff
      000007E0H   SYMBOL    EDATA    DWORD     len
      000007E4H   SYMBOL    EDATA    WORD      time_count
      000006D0H   SYMBOL    EDATA    ---       buff
      000006D4H   SYMBOL    EDATA    DWORD     len
      000006D8H   SYMBOL    EDATA    DWORD     data_len

      ---         MODULE    ---      ---       SEEKFREE_DL1A
      00FF74A1H   PUBLIC    CODE     ---       dl1a_get_distance
      00000B61H   PUBLIC    EDATA    WORD      dl1a_distance_mm
      00000B63H   PUBLIC    EDATA    BYTE      dl1a_finsh_flag
      000000D0H   SFRSYM    DATA     BYTE      PSW
      0000009DH   SFRSYM    DATA     BYTE      IRCBAND
      00000097H   SFRSYM    DATA     BYTE      AUXR2
      000000EFH   SFRSYM    DATA     BYTE      AUXINTIF
      000000FDH   SFRSYM    DATA     BYTE      S4CON
      000000ACH   SFRSYM    DATA     BYTE      S3CON
      0000009AH   SFRSYM    DATA     BYTE      S2CON
      000000B7H   SFRSYM    DATA     BYTE      IPH
      000000CDH   SFRSYM    DATA     BYTE      SPSTAT
      000000DDH   SFRSYM    DATA     BYTE      T4T3M
      000000C1H   SFRSYM    DATA     BYTE      WDT_CONTR
      000000DFH   SFRSYM    DATA     BYTE      IP3
      000000F4H   SFRSYM    DATA     BYTE      USBCON
      000000B5H   SFRSYM    DATA     BYTE      IP2
      000000FFH   SFRSYM    DATA     BYTE      RSTCFG
      000000F9H   SFRSYM    DATA     BYTE      LINICR
      0000008EH   SFRSYM    DATA     BYTE      AUXR
      000000AFH   SFRSYM    DATA     BYTE      IE2
      000000C0H.7 SFRSYM    DATA     BIT       P47
      000000E8H.5 SFRSYM    DATA     BIT       P65
      000000E8H.3 SFRSYM    DATA     BIT       P63
      00000088H   SFRSYM    DATA     BYTE      TCON
      00000098H   SFRSYM    DATA     BYTE      SCON
      000000F1H   SFRSYM    DATA     BYTE      CANICR
      00000087H   SFRSYM    DATA     BYTE      PCON
      000000BCH   SFRSYM    DATA     BYTE      ADC_CONTR
      000000E7H   SFRSYM    DATA     BYTE      CMPCR2
      000000E6H   SFRSYM    DATA     BYTE      CMPCR1
      000000B8H   SFRSYM    DATA     BYTE      IP
      0000008FH   SFRSYM    DATA     BYTE      INTCLKO
      000000EEH   SFRSYM    DATA     BYTE      IP3H
      000000B6H   SFRSYM    DATA     BYTE      IP2H
      000000A8H   SFRSYM    DATA     BYTE      IE
      000000BBH   SFRSYM    DATA     BYTE      P_SW3
      000000BAH   SFRSYM    DATA     BYTE      P_SW2
      000000A2H   SFRSYM    DATA     BYTE      P_SW1
      000000CEH   SFRSYM    DATA     BYTE      SPCTL
      000000F8H   SFRSYM    DATA     BYTE      P7
      000000E8H   SFRSYM    DATA     BYTE      P6
      000000C8H   SFRSYM    DATA     BYTE      P5
      000000C0H   SFRSYM    DATA     BYTE      P4
L251 LINKER/LOCATER V4.66.93.0                                                        07/19/2023  21:09:12  PAGE 59


      000000B0H   SFRSYM    DATA     BYTE      P3
      000000A0H   SFRSYM    DATA     BYTE      P2
      00000090H   SFRSYM    DATA     BYTE      P1
      00000080H   SFRSYM    DATA     BYTE      P0
      00FF7F8FH   SYMBOL    CODE     ---       dl1a_simiic_sendack
      00FF7A8FH   SYMBOL    CODE     ---       dl1a_timeout_microseconds_to_mclks
      00FF7A3CH   SYMBOL    CODE     ---       dl1a_timeout_mclks_to_microseconds
      00FF7577H   SYMBOL    CODE     ---       dl1a_read_ch
      00FF7F11H   SYMBOL    CODE     ---       dl1a_decode_timeout
      00FF7C5DH   SYMBOL    CODE     ---       dl1a_send_ch
      00FF71E3H   SYMBOL    CODE     ---       dl1a_encode_timeout
      00FF6F4CH   SYMBOL    CODE     ---       dl1a_get_sequence_step_enables
      00FF80B8H   SYMBOL    CODE     ---       dl1a_sccb_waitack
      00FF80D9H   SYMBOL    CODE     ---       dl1a_simiic_delay
      00FF5CFFH   SYMBOL    CODE     ---       dl1a_get_sequence_step_timeouts
      00FF81EBH   SYMBOL    CODE     ---       dl1a_simiic_start
      00FF75E1H   SYMBOL    CODE     ---       dl1a_simiic_read_regs
      00FF7D30H   SYMBOL    CODE     ---       dl1a_simiic_write_dats
      00FF7649H   SYMBOL    CODE     ---       dl1a_simiic_read_regs_1
      00FF816DH   SYMBOL    CODE     ---       dl1a_simiic_stop
      00FF7F3BH   SYMBOL    CODE     ---       dl1a_simiic_write_reg
      00FF7262H   SYMBOL    CODE     ---       dl1a_get_vcsel_pulse_period

      00FF80D9H   BLOCK     CODE     ---       LVL=0
      00000BA1H   SYMBOL    EDATA    WORD      j
      00FF80D9H   LINE      CODE     ---       #59
      00FF80D9H   LINE      CODE     ---       #60
      00FF80D9H   LINE      CODE     ---       #61
      00FF80E1H   LINE      CODE     ---       #62
      00FF80F7H   LINE      CODE     ---       #63
      ---         BLOCKEND  ---      ---       LVL=0

      00FF81EBH   BLOCK     CODE     ---       LVL=0
      00FF81EBH   LINE      CODE     ---       #66
      00FF81EBH   LINE      CODE     ---       #68
      00FF81EEH   LINE      CODE     ---       #69
      00FF81F1H   LINE      CODE     ---       #70
      00FF81F4H   LINE      CODE     ---       #71
      00FF81F7H   LINE      CODE     ---       #72
      00FF81FAH   LINE      CODE     ---       #73
      00FF81FDH   LINE      CODE     ---       #74
      ---         BLOCKEND  ---      ---       LVL=0

      00FF816DH   BLOCK     CODE     ---       LVL=0
      00FF816DH   LINE      CODE     ---       #77
      00FF816DH   LINE      CODE     ---       #79
      00FF8170H   LINE      CODE     ---       #80
      00FF8173H   LINE      CODE     ---       #81
      00FF8176H   LINE      CODE     ---       #82
      00FF8179H   LINE      CODE     ---       #83
      00FF817CH   LINE      CODE     ---       #84
      00FF817FH   LINE      CODE     ---       #85
      00FF8182H   LINE      CODE     ---       #86
      ---         BLOCKEND  ---      ---       LVL=0

      00FF7F8FH   BLOCK     CODE     ---       LVL=0
      00000BE3H   SYMBOL    EDATA    BYTE      ack_dat
      00FF7F8FH   LINE      CODE     ---       #90
      00FF7F93H   LINE      CODE     ---       #92
      00FF7F96H   LINE      CODE     ---       #93
      00FF7F99H   LINE      CODE     ---       #94
      00FF7FA7H   LINE      CODE     ---       #95
      00FF7FAAH   LINE      CODE     ---       #97
      00FF7FADH   LINE      CODE     ---       #98
      00FF7FB0H   LINE      CODE     ---       #99
L251 LINKER/LOCATER V4.66.93.0                                                        07/19/2023  21:09:12  PAGE 60


      00FF7FB3H   LINE      CODE     ---       #100
      00FF7FB6H   LINE      CODE     ---       #101
      ---         BLOCKEND  ---      ---       LVL=0

      00FF80B8H   BLOCK     CODE     ---       LVL=0
      00FF80B8H   LINE      CODE     ---       #104
      00FF80B8H   LINE      CODE     ---       #106
      00FF80BBH   LINE      CODE     ---       #108
      00FF80BEH   LINE      CODE     ---       #110
      00FF80C1H   LINE      CODE     ---       #111
      00FF80C4H   LINE      CODE     ---       #113
      00FF80C7H   LINE      CODE     ---       #116
      00FF80CAH   LINE      CODE     ---       #117
      00FF80CEH   LINE      CODE     ---       #118
      00FF80CEH   LINE      CODE     ---       #120
      00FF80D1H   LINE      CODE     ---       #121
      00FF80D4H   LINE      CODE     ---       #122
      00FF80D8H   LINE      CODE     ---       #123
      ---         BLOCKEND  ---      ---       LVL=0

      00FF7C5DH   BLOCK     CODE     ---       LVL=0
      00000BA3H   SYMBOL    EDATA    BYTE      c
      00FF7C61H   BLOCK     CODE     NEAR LAB  LVL=1
      00000BA4H   SYMBOL    EDATA    BYTE      i
      ---         BLOCKEND  ---      ---       LVL=1
      00FF7C5DH   LINE      CODE     ---       #129
      00FF7C61H   LINE      CODE     ---       #130
      00FF7C61H   LINE      CODE     ---       #131
      00FF7C67H   LINE      CODE     ---       #132
      00FF7C69H   LINE      CODE     ---       #134
      00FF7C75H   LINE      CODE     ---       #135
      00FF7C78H   LINE      CODE     ---       #136
      00FF7C82H   LINE      CODE     ---       #137
      00FF7C85H   LINE      CODE     ---       #138
      00FF7C88H   LINE      CODE     ---       #139
      00FF7C8BH   LINE      CODE     ---       #140
      00FF7C8EH   LINE      CODE     ---       #141
      00FF7CA2H   LINE      CODE     ---       #142
      00FF7CA5H   LINE      CODE     ---       #143
      ---         BLOCKEND  ---      ---       LVL=0

      00FF7577H   BLOCK     CODE     ---       LVL=0
      00000B64H   SYMBOL    EDATA    BYTE      ack_x
      00FF757BH   BLOCK     CODE     NEAR LAB  LVL=1
      00000B65H   SYMBOL    EDATA    BYTE      i
      00000B66H   SYMBOL    EDATA    BYTE      c
      ---         BLOCKEND  ---      ---       LVL=1
      00FF7577H   LINE      CODE     ---       #149
      00FF757BH   LINE      CODE     ---       #150
      00FF757BH   LINE      CODE     ---       #153
      00FF7580H   LINE      CODE     ---       #154
      00FF7583H   LINE      CODE     ---       #155
      00FF7586H   LINE      CODE     ---       #156
      00FF7589H   LINE      CODE     ---       #158
      00FF7590H   LINE      CODE     ---       #160
      00FF7593H   LINE      CODE     ---       #161
      00FF7596H   LINE      CODE     ---       #162
      00FF7599H   LINE      CODE     ---       #163
      00FF759CH   LINE      CODE     ---       #164
      00FF759FH   LINE      CODE     ---       #165
      00FF75A9H   LINE      CODE     ---       #166
      00FF75ACH   LINE      CODE     ---       #168
      00FF75B8H   LINE      CODE     ---       #169
      00FF75CFH   LINE      CODE     ---       #172
      00FF75D2H   LINE      CODE     ---       #173
L251 LINKER/LOCATER V4.66.93.0                                                        07/19/2023  21:09:12  PAGE 61


      00FF75D5H   LINE      CODE     ---       #174
      00FF75DCH   LINE      CODE     ---       #176
      00FF75E0H   LINE      CODE     ---       #177
      ---         BLOCKEND  ---      ---       LVL=0

      00FF7D30H   BLOCK     CODE     ---       LVL=0
      00000864H   SYMBOL    EDATA    BYTE      dev_add
      00000865H   SYMBOL    EDATA    ---       dat
      00000869H   SYMBOL    EDATA    DWORD     len
      00FF7D30H   LINE      CODE     ---       #189
      00FF7D3CH   LINE      CODE     ---       #191
      00FF7D3FH   LINE      CODE     ---       #192
      00FF7D48H   LINE      CODE     ---       #193
      00FF7D4AH   LINE      CODE     ---       #195
      00FF7D5AH   LINE      CODE     ---       #196
      00FF7D6EH   LINE      CODE     ---       #199
      00FF7D71H   LINE      CODE     ---       #200
      ---         BLOCKEND  ---      ---       LVL=0

      00FF7F3BH   BLOCK     CODE     ---       LVL=0
      00000B67H   SYMBOL    EDATA    BYTE      dev_add
      00000B68H   SYMBOL    EDATA    BYTE      reg
      00000B69H   SYMBOL    EDATA    BYTE      dat
      00FF7F3BH   LINE      CODE     ---       #212
      00FF7F47H   LINE      CODE     ---       #214
      00FF7F4AH   LINE      CODE     ---       #215
      00FF7F53H   LINE      CODE     ---       #216
      00FF7F5AH   LINE      CODE     ---       #217
      00FF7F61H   LINE      CODE     ---       #218
      00FF7F64H   LINE      CODE     ---       #219
      ---         BLOCKEND  ---      ---       LVL=0
      00000B6AH   SYMBOL    EDATA    BYTE      dev_add
      00000B6BH   SYMBOL    EDATA    BYTE      reg
      00000B6CH   SYMBOL    EDATA    BYTE      dat

      00FF75E1H   BLOCK     CODE     ---       LVL=0
      000007E6H   SYMBOL    EDATA    BYTE      dev_add
      000007E7H   SYMBOL    EDATA    BYTE      reg
      000007E8H   SYMBOL    EDATA    ---       dat_add
      000007ECH   SYMBOL    EDATA    DWORD     num
      00FF75E1H   LINE      CODE     ---       #257
      00FF75EDH   LINE      CODE     ---       #259
      00FF75F0H   LINE      CODE     ---       #260
      00FF75F9H   LINE      CODE     ---       #261
      00FF7600H   LINE      CODE     ---       #264
      00FF7603H   LINE      CODE     ---       #265
      00FF7610H   LINE      CODE     ---       #266
      00FF7612H   LINE      CODE     ---       #268
      00FF761EH   LINE      CODE     ---       #269
      00FF7628H   LINE      CODE     ---       #270
      00FF763AH   LINE      CODE     ---       #271
      00FF7645H   LINE      CODE     ---       #272
      00FF7648H   LINE      CODE     ---       #273
      ---         BLOCKEND  ---      ---       LVL=0

      00FF7649H   BLOCK     CODE     ---       LVL=0
      000007F0H   SYMBOL    EDATA    BYTE      dev_add
      000007F1H   SYMBOL    EDATA    BYTE      reg
      000007F2H   SYMBOL    EDATA    ---       dat_add
      000007F6H   SYMBOL    EDATA    DWORD     num
      00FF7649H   LINE      CODE     ---       #286
      00FF7655H   LINE      CODE     ---       #288
      00FF7658H   LINE      CODE     ---       #289
      00FF7661H   LINE      CODE     ---       #290
      00FF7668H   LINE      CODE     ---       #293
L251 LINKER/LOCATER V4.66.93.0                                                        07/19/2023  21:09:12  PAGE 62


      00FF766BH   LINE      CODE     ---       #294
      00FF7678H   LINE      CODE     ---       #295
      00FF767AH   LINE      CODE     ---       #297
      00FF7686H   LINE      CODE     ---       #298
      00FF7690H   LINE      CODE     ---       #299
      00FF76A2H   LINE      CODE     ---       #300
      00FF76ADH   LINE      CODE     ---       #301
      00FF76B0H   LINE      CODE     ---       #302
      ---         BLOCKEND  ---      ---       LVL=0
      000006DCH   SYMBOL    EDATA    ---       index
      000006E0H   SYMBOL    EDATA    ---       type_is_aperture
      000006E4H   SYMBOL    EDATA    BYTE      tmp
      000006E5H   SYMBOL    EDATA    BYTE      return_state
      000006E6H   SYMBOL    EDATA    WORD      loop_count

      00FF7A3CH   BLOCK     CODE     ---       LVL=0
      000009FDH   SYMBOL    EDATA    WORD      timeout_period_mclks
      000009FFH   SYMBOL    EDATA    BYTE      vcsel_period_pclks
      00FF7A44H   BLOCK     CODE     NEAR LAB  LVL=1
      00000A00H   SYMBOL    EDATA    DWORD     macro_period_ns
      ---         BLOCKEND  ---      ---       LVL=1
      00FF7A3CH   LINE      CODE     ---       #401
      00FF7A44H   LINE      CODE     ---       #402
      00FF7A44H   LINE      CODE     ---       #403
      00FF7A6BH   LINE      CODE     ---       #405
      00FF7A8EH   LINE      CODE     ---       #406
      ---         BLOCKEND  ---      ---       LVL=0

      00FF7A8FH   BLOCK     CODE     ---       LVL=0
      0000086DH   SYMBOL    EDATA    DWORD     timeout_period_us
      00000871H   SYMBOL    EDATA    BYTE      vcsel_period_pclks
      00FF7A97H   BLOCK     CODE     NEAR LAB  LVL=1
      00000872H   SYMBOL    EDATA    DWORD     macro_period_ns
      ---         BLOCKEND  ---      ---       LVL=1
      00FF7A8FH   LINE      CODE     ---       #416
      00FF7A97H   LINE      CODE     ---       #417
      00FF7A97H   LINE      CODE     ---       #418
      00FF7ABEH   LINE      CODE     ---       #420
      00FF7ADFH   LINE      CODE     ---       #421
      ---         BLOCKEND  ---      ---       LVL=0

      00FF7F11H   BLOCK     CODE     ---       LVL=0
      00000BA5H   SYMBOL    EDATA    WORD      reg_val
      00FF7F11H   LINE      CODE     ---       #430
      00FF7F15H   LINE      CODE     ---       #433
      00FF7F3AH   LINE      CODE     ---       #435
      ---         BLOCKEND  ---      ---       LVL=0

      00FF71E3H   BLOCK     CODE     ---       LVL=0
      000007FAH   SYMBOL    EDATA    WORD      timeout_mclks
      00FF71E7H   BLOCK     CODE     NEAR LAB  LVL=1
      000007FCH   SYMBOL    EDATA    DWORD     ls_byte
      00000800H   SYMBOL    EDATA    WORD      ms_byte
      00000802H   SYMBOL    EDATA    WORD      return_data
      ---         BLOCKEND  ---      ---       LVL=1
      00FF71E3H   LINE      CODE     ---       #444
      00FF71E7H   LINE      CODE     ---       #445
      00FF71E7H   LINE      CODE     ---       #446
      00FF71EDH   LINE      CODE     ---       #447
      00FF71F3H   LINE      CODE     ---       #448
      00FF71F9H   LINE      CODE     ---       #450
      00FF7203H   LINE      CODE     ---       #453
      00FF7213H   LINE      CODE     ---       #454
      00FF7215H   LINE      CODE     ---       #456
      00FF7226H   LINE      CODE     ---       #457
L251 LINKER/LOCATER V4.66.93.0                                                        07/19/2023  21:09:12  PAGE 63


      00FF7234H   LINE      CODE     ---       #458
      00FF7245H   LINE      CODE     ---       #459
      00FF725DH   LINE      CODE     ---       #460
      00FF725DH   LINE      CODE     ---       #461
      00FF7261H   LINE      CODE     ---       #462
      ---         BLOCKEND  ---      ---       LVL=0

      00FF6F4CH   BLOCK     CODE     ---       LVL=0
      00000AE0H   SYMBOL    EDATA    ---       enables
      00FF6F50H   BLOCK     CODE     NEAR LAB  LVL=1
      00000AE4H   SYMBOL    EDATA    BYTE      sequence_config
      ---         BLOCKEND  ---      ---       LVL=1
      00FF6F4CH   LINE      CODE     ---       #471
      00FF6F50H   LINE      CODE     ---       #472
      00FF6F50H   LINE      CODE     ---       #473
      00FF6F55H   LINE      CODE     ---       #474
      00FF6F69H   LINE      CODE     ---       #476
      00FF6F7DH   LINE      CODE     ---       #477
      00FF6F94H   LINE      CODE     ---       #478
      00FF6FAAH   LINE      CODE     ---       #479
      00FF6FC3H   LINE      CODE     ---       #480
      00FF6FD9H   LINE      CODE     ---       #481
      ---         BLOCKEND  ---      ---       LVL=0

      00FF7262H   BLOCK     CODE     ---       LVL=0
      00000B6DH   SYMBOL    EDATA    INT       type
      00FF7266H   BLOCK     CODE     NEAR LAB  LVL=1
      00000B6FH   SYMBOL    EDATA    BYTE      data_buffer
      ---         BLOCKEND  ---      ---       LVL=1
      00FF7262H   LINE      CODE     ---       #490
      00FF7266H   LINE      CODE     ---       #491
      00FF7266H   LINE      CODE     ---       #492
      00FF726BH   LINE      CODE     ---       #493
      00FF7275H   LINE      CODE     ---       #495
      00FF7289H   LINE      CODE     ---       #496
      00FF729BH   LINE      CODE     ---       #497
      00FF729DH   LINE      CODE     ---       #498
      00FF72A9H   LINE      CODE     ---       #500
      00FF72BDH   LINE      CODE     ---       #501
      00FF72CFH   LINE      CODE     ---       #502
      00FF72D1H   LINE      CODE     ---       #505
      00FF72D7H   LINE      CODE     ---       #506
      00FF72D7H   LINE      CODE     ---       #507
      00FF72DBH   LINE      CODE     ---       #508
      ---         BLOCKEND  ---      ---       LVL=0

      00FF5CFFH   BLOCK     CODE     ---       LVL=0
      000006E8H   SYMBOL    EDATA    ---       enables
      000006ECH   SYMBOL    EDATA    ---       timeouts
      00FF5D07H   BLOCK     CODE     NEAR LAB  LVL=1
      000006F0H   SYMBOL    EDATA    ---       reg_buffer
      000006F2H   SYMBOL    EDATA    WORD      reg16_buffer
      ---         BLOCKEND  ---      ---       LVL=1
      00FF5CFFH   LINE      CODE     ---       #518
      00FF5D07H   LINE      CODE     ---       #519
      00FF5D07H   LINE      CODE     ---       #521
      00FF5D0DH   LINE      CODE     ---       #523
      00FF5D1BH   LINE      CODE     ---       #525
      00FF5D2FH   LINE      CODE     ---       #526
      00FF5D44H   LINE      CODE     ---       #527
      00FF5D68H   LINE      CODE     ---       #529
      00FF5D7CH   LINE      CODE     ---       #530
      00FF5D92H   LINE      CODE     ---       #531
      00FF5DA2H   LINE      CODE     ---       #532
      00FF5DC8H   LINE      CODE     ---       #534
L251 LINKER/LOCATER V4.66.93.0                                                        07/19/2023  21:09:12  PAGE 64


      00FF5DDAH   LINE      CODE     ---       #536
      00FF5DEEH   LINE      CODE     ---       #537
      00FF5E04H   LINE      CODE     ---       #538
      00FF5E14H   LINE      CODE     ---       #540
      00FF5E24H   LINE      CODE     ---       #542
      00FF5E3FH   LINE      CODE     ---       #543
      00FF5E3FH   LINE      CODE     ---       #545
      00FF5E67H   LINE      CODE     ---       #546
      ---         BLOCKEND  ---      ---       LVL=0
      00000AE5H   SYMBOL    EDATA    BYTE      vhv_init_byte
      00000AE6H   SYMBOL    EDATA    BYTE      return_state
      00000AE7H   SYMBOL    EDATA    BYTE      data_buffer
      00000AE8H   SYMBOL    EDATA    WORD      loop_count
      000003C3H   SYMBOL    EDATA    DWORD     budget_us
      000003C7H   SYMBOL    EDATA    BYTE      return_state
      000003C8H   SYMBOL    EDATA    ---       data_buffer
      000003CBH   SYMBOL    EDATA    WORD      dat
      000003CDH   SYMBOL    EDATA    DWORD     used_budget_us
      000003D1H   SYMBOL    EDATA    DWORD     final_range_timeout_us
      000003D5H   SYMBOL    EDATA    WORD      final_range_timeout_mclks
      000003D7H   SYMBOL    EDATA    ---       enables
      000003DCH   SYMBOL    EDATA    ---       timeouts
      00000552H   SYMBOL    EDATA    ---       enables
      00000557H   SYMBOL    EDATA    ---       timeouts
      0000056DH   SYMBOL    EDATA    DWORD     budget_us
      00000876H   SYMBOL    EDATA    FLOAT     limit_mcps
      0000087AH   SYMBOL    EDATA    ---       data_buffer
      0000087DH   SYMBOL    EDATA    WORD      limit_mcps_16bit

      00FF74A1H   BLOCK     CODE     ---       LVL=0
      00000B70H   SYMBOL    EDATA    ---       reg_databuffer
      00FF74A1H   LINE      CODE     ---       #754
      00FF74A1H   LINE      CODE     ---       #755
      00FF74A1H   LINE      CODE     ---       #758
      00FF74B5H   LINE      CODE     ---       #759
      00FF74C2H   LINE      CODE     ---       #761
      00FF74C7H   LINE      CODE     ---       #762
      00FF74C9H   LINE      CODE     ---       #766
      00FF74DDH   LINE      CODE     ---       #767
      00FF74EBH   LINE      CODE     ---       #768
      00FF74FBH   LINE      CODE     ---       #770
      00FF7506H   LINE      CODE     ---       #771
      00FF750CH   LINE      CODE     ---       #772
      00FF750CH   LINE      CODE     ---       #773
      ---         BLOCKEND  ---      ---       LVL=0
      00000571H   SYMBOL    EDATA    DWORD     measurement_timing_budget_us
      00000575H   SYMBOL    EDATA    BYTE      stop_variable
      00000576H   SYMBOL    EDATA    BYTE      return_state
      00000577H   SYMBOL    EDATA    BYTE      reg_data_buffer
      00000578H   SYMBOL    EDATA    ---       ref_spad_map
      0000057EH   SYMBOL    EDATA    ---       data_buffer
      00000585H   SYMBOL    EDATA    BYTE      i

      ---         MODULE    ---      ---       SEEKFREE_FONT
      00FF20A6H   PUBLIC    CODE     ---       oled_8x16
      00FF2696H   PUBLIC    CODE     ---       tft_ascii
      00FF2C86H   PUBLIC    CODE     ---       oled_6x8
      000000D0H   SFRSYM    DATA     BYTE      PSW
      0000009DH   SFRSYM    DATA     BYTE      IRCBAND
      00000097H   SFRSYM    DATA     BYTE      AUXR2
      000000EFH   SFRSYM    DATA     BYTE      AUXINTIF
      000000FDH   SFRSYM    DATA     BYTE      S4CON
      000000ACH   SFRSYM    DATA     BYTE      S3CON
      0000009AH   SFRSYM    DATA     BYTE      S2CON
      000000B7H   SFRSYM    DATA     BYTE      IPH
L251 LINKER/LOCATER V4.66.93.0                                                        07/19/2023  21:09:12  PAGE 65


      000000CDH   SFRSYM    DATA     BYTE      SPSTAT
      000000DDH   SFRSYM    DATA     BYTE      T4T3M
      000000C1H   SFRSYM    DATA     BYTE      WDT_CONTR
      000000DFH   SFRSYM    DATA     BYTE      IP3
      000000F4H   SFRSYM    DATA     BYTE      USBCON
      000000B5H   SFRSYM    DATA     BYTE      IP2
      000000FFH   SFRSYM    DATA     BYTE      RSTCFG
      000000F9H   SFRSYM    DATA     BYTE      LINICR
      0000008EH   SFRSYM    DATA     BYTE      AUXR
      000000AFH   SFRSYM    DATA     BYTE      IE2
      00000088H   SFRSYM    DATA     BYTE      TCON
      00000098H   SFRSYM    DATA     BYTE      SCON
      000000F1H   SFRSYM    DATA     BYTE      CANICR
      00000087H   SFRSYM    DATA     BYTE      PCON
      000000BCH   SFRSYM    DATA     BYTE      ADC_CONTR
      000000E7H   SFRSYM    DATA     BYTE      CMPCR2
      000000E6H   SFRSYM    DATA     BYTE      CMPCR1
      000000B8H   SFRSYM    DATA     BYTE      IP
      0000008FH   SFRSYM    DATA     BYTE      INTCLKO
      000000EEH   SFRSYM    DATA     BYTE      IP3H
      000000B6H   SFRSYM    DATA     BYTE      IP2H
      000000A8H   SFRSYM    DATA     BYTE      IE
      000000BBH   SFRSYM    DATA     BYTE      P_SW3
      000000BAH   SFRSYM    DATA     BYTE      P_SW2
      000000A2H   SFRSYM    DATA     BYTE      P_SW1
      000000CEH   SFRSYM    DATA     BYTE      SPCTL
      000000F8H   SFRSYM    DATA     BYTE      P7
      000000E8H   SFRSYM    DATA     BYTE      P6
      000000C8H   SFRSYM    DATA     BYTE      P5
      000000C0H   SFRSYM    DATA     BYTE      P4
      000000B0H   SFRSYM    DATA     BYTE      P3
      000000A0H   SFRSYM    DATA     BYTE      P2
      00000090H   SFRSYM    DATA     BYTE      P1
      00000080H   SFRSYM    DATA     BYTE      P0

      ---         MODULE    ---      ---       SEEKFREE_ICM20602
      000006F4H   PUBLIC    EDATA    INT       icm20602_acc_x
      000006F6H   PUBLIC    EDATA    INT       icm20602_acc_y
      000006F8H   PUBLIC    EDATA    INT       icm20602_acc_z
      000006FAH   PUBLIC    EDATA    INT       icm20602_gyro_x
      000006FCH   PUBLIC    EDATA    INT       icm20602_gyro_y
      000006FEH   PUBLIC    EDATA    INT       icm20602_gyro_z
      000000D0H   SFRSYM    DATA     BYTE      PSW
      0000009DH   SFRSYM    DATA     BYTE      IRCBAND
      00000097H   SFRSYM    DATA     BYTE      AUXR2
      000000EFH   SFRSYM    DATA     BYTE      AUXINTIF
      000000FDH   SFRSYM    DATA     BYTE      S4CON
      000000ACH   SFRSYM    DATA     BYTE      S3CON
      0000009AH   SFRSYM    DATA     BYTE      S2CON
      000000B7H   SFRSYM    DATA     BYTE      IPH
      000000CDH   SFRSYM    DATA     BYTE      SPSTAT
      000000DDH   SFRSYM    DATA     BYTE      T4T3M
      000000C1H   SFRSYM    DATA     BYTE      WDT_CONTR
      000000DFH   SFRSYM    DATA     BYTE      IP3
      000000F4H   SFRSYM    DATA     BYTE      USBCON
      000000B5H   SFRSYM    DATA     BYTE      IP2
      000000FFH   SFRSYM    DATA     BYTE      RSTCFG
      000000F9H   SFRSYM    DATA     BYTE      LINICR
      0000008EH   SFRSYM    DATA     BYTE      AUXR
      000000AFH   SFRSYM    DATA     BYTE      IE2
      000000C0H.3 SFRSYM    DATA     BIT       P43
      000000C0H.2 SFRSYM    DATA     BIT       P42
      00000088H   SFRSYM    DATA     BYTE      TCON
      000000C0H.1 SFRSYM    DATA     BIT       P41
      00000098H   SFRSYM    DATA     BYTE      SCON
L251 LINKER/LOCATER V4.66.93.0                                                        07/19/2023  21:09:12  PAGE 66


      000000C0H.0 SFRSYM    DATA     BIT       P40
      000000F1H   SFRSYM    DATA     BYTE      CANICR
      00000087H   SFRSYM    DATA     BYTE      PCON
      000000BCH   SFRSYM    DATA     BYTE      ADC_CONTR
      000000E7H   SFRSYM    DATA     BYTE      CMPCR2
      000000E6H   SFRSYM    DATA     BYTE      CMPCR1
      000000B8H   SFRSYM    DATA     BYTE      IP
      0000008FH   SFRSYM    DATA     BYTE      INTCLKO
      000000EEH   SFRSYM    DATA     BYTE      IP3H
      000000B6H   SFRSYM    DATA     BYTE      IP2H
      000000A8H   SFRSYM    DATA     BYTE      IE
      000000BBH   SFRSYM    DATA     BYTE      P_SW3
      000000BAH   SFRSYM    DATA     BYTE      P_SW2
      000000A2H   SFRSYM    DATA     BYTE      P_SW1
      000000CEH   SFRSYM    DATA     BYTE      SPCTL
      000000F8H   SFRSYM    DATA     BYTE      P7
      000000E8H   SFRSYM    DATA     BYTE      P6
      000000C8H   SFRSYM    DATA     BYTE      P5
      000000C0H   SFRSYM    DATA     BYTE      P4
      000000B0H   SFRSYM    DATA     BYTE      P3
      000000A0H   SFRSYM    DATA     BYTE      P2
      00000090H   SFRSYM    DATA     BYTE      P1
      00000080H   SFRSYM    DATA     BYTE      P0
      00FF7887H   SYMBOL    CODE     ---       icm20602_simspi_wr_byte

      00FF7887H   BLOCK     CODE     ---       LVL=0
      00000BA7H   SYMBOL    EDATA    BYTE      byte
      00FF788BH   BLOCK     CODE     NEAR LAB  LVL=1
      00000BA8H   SYMBOL    EDATA    BYTE      i
      ---         BLOCKEND  ---      ---       LVL=1
      00FF7887H   LINE      CODE     ---       #278
      00FF788BH   LINE      CODE     ---       #279
      00FF788BH   LINE      CODE     ---       #282
      00FF7892H   LINE      CODE     ---       #284
      00FF78A0H   LINE      CODE     ---       #285
      00FF78AAH   LINE      CODE     ---       #286
      00FF78ADH   LINE      CODE     ---       #287
      00FF78B0H   LINE      CODE     ---       #289
      00FF78B3H   LINE      CODE     ---       #290
      00FF78B6H   LINE      CODE     ---       #291
      00FF78C4H   LINE      CODE     ---       #292
      00FF78DBH   LINE      CODE     ---       #293
      00FF78DFH   LINE      CODE     ---       #294
      ---         BLOCKEND  ---      ---       LVL=0
      00000BA9H   SYMBOL    EDATA    BYTE      cmd
      00000BAAH   SYMBOL    EDATA    BYTE      val
      00000AEAH   SYMBOL    EDATA    BYTE      cmd
      00000AEBH   SYMBOL    EDATA    ---       val
      00000661H   SYMBOL    EDATA    BYTE      cmd
      00000662H   SYMBOL    EDATA    ---       val
      00000666H   SYMBOL    EDATA    DWORD     num
      0000066AH   SYMBOL    EDATA    DWORD     i
      00000BABH   SYMBOL    EDATA    BYTE      reg
      00000BACH   SYMBOL    EDATA    BYTE      dat
      00000BADH   SYMBOL    EDATA    BYTE      reg
      00000BAEH   SYMBOL    EDATA    BYTE      dat
      0000087FH   SYMBOL    EDATA    BYTE      reg
      00000880H   SYMBOL    EDATA    ---       dat
      00000884H   SYMBOL    EDATA    DWORD     len
      00000B28H   SYMBOL    EDATA    BYTE      dat
      00000B29H   SYMBOL    EDATA    BYTE      return_state
      00000B2AH   SYMBOL    EDATA    WORD      timeout_count
      00000A4BH   SYMBOL    EDATA    ---       dat
      00000A51H   SYMBOL    EDATA    ---       dat
      00000A57H   SYMBOL    EDATA    INT       acc_value
L251 LINKER/LOCATER V4.66.93.0                                                        07/19/2023  21:09:12  PAGE 67


      00000A59H   SYMBOL    EDATA    FLOAT     acc_data
      00000A5DH   SYMBOL    EDATA    INT       gyro_value
      00000A5FH   SYMBOL    EDATA    FLOAT     gyro_data
      00000B2CH   SYMBOL    EDATA    BYTE      val
      00000B2DH   SYMBOL    EDATA    BYTE      return_state
      00000B2EH   SYMBOL    EDATA    WORD      timeout_count

      ---         MODULE    ---      ---       SEEKFREE_IMU660RA
      00FF7AE0H   PUBLIC    CODE     ---       imu660ra_get_gyro
      00000700H   PUBLIC    EDATA    INT       imu660ra_acc_x
      00000702H   PUBLIC    EDATA    INT       imu660ra_acc_y
      00000704H   PUBLIC    EDATA    INT       imu660ra_acc_z
      00000706H   PUBLIC    EDATA    INT       imu660ra_gyro_x
      00000708H   PUBLIC    EDATA    INT       imu660ra_gyro_y
      0000070AH   PUBLIC    EDATA    INT       imu660ra_gyro_z
      000000D0H   SFRSYM    DATA     BYTE      PSW
      0000009DH   SFRSYM    DATA     BYTE      IRCBAND
      00000097H   SFRSYM    DATA     BYTE      AUXR2
      000000EFH   SFRSYM    DATA     BYTE      AUXINTIF
      000000FDH   SFRSYM    DATA     BYTE      S4CON
      000000ACH   SFRSYM    DATA     BYTE      S3CON
      0000009AH   SFRSYM    DATA     BYTE      S2CON
      000000B7H   SFRSYM    DATA     BYTE      IPH
      000000CDH   SFRSYM    DATA     BYTE      SPSTAT
      000000DDH   SFRSYM    DATA     BYTE      T4T3M
      000000C1H   SFRSYM    DATA     BYTE      WDT_CONTR
      000000DFH   SFRSYM    DATA     BYTE      IP3
      000000F4H   SFRSYM    DATA     BYTE      USBCON
      000000B5H   SFRSYM    DATA     BYTE      IP2
      000000FFH   SFRSYM    DATA     BYTE      RSTCFG
      000000F9H   SFRSYM    DATA     BYTE      LINICR
      0000008EH   SFRSYM    DATA     BYTE      AUXR
      000000AFH   SFRSYM    DATA     BYTE      IE2
      000000C0H.3 SFRSYM    DATA     BIT       P43
      000000C0H.2 SFRSYM    DATA     BIT       P42
      00000088H   SFRSYM    DATA     BYTE      TCON
      000000C0H.1 SFRSYM    DATA     BIT       P41
      00000098H   SFRSYM    DATA     BYTE      SCON
      000000C0H.0 SFRSYM    DATA     BIT       P40
      000000F1H   SFRSYM    DATA     BYTE      CANICR
      00000087H   SFRSYM    DATA     BYTE      PCON
      000000BCH   SFRSYM    DATA     BYTE      ADC_CONTR
      000000E7H   SFRSYM    DATA     BYTE      CMPCR2
      000000E6H   SFRSYM    DATA     BYTE      CMPCR1
      000000B8H   SFRSYM    DATA     BYTE      IP
      0000008FH   SFRSYM    DATA     BYTE      INTCLKO
      000000EEH   SFRSYM    DATA     BYTE      IP3H
      000000B6H   SFRSYM    DATA     BYTE      IP2H
      000000A8H   SFRSYM    DATA     BYTE      IE
      000000BBH   SFRSYM    DATA     BYTE      P_SW3
      000000BAH   SFRSYM    DATA     BYTE      P_SW2
      000000A2H   SFRSYM    DATA     BYTE      P_SW1
      000000CEH   SFRSYM    DATA     BYTE      SPCTL
      000000F8H   SFRSYM    DATA     BYTE      P7
      000000E8H   SFRSYM    DATA     BYTE      P6
      000000C8H   SFRSYM    DATA     BYTE      P5
      000000C0H   SFRSYM    DATA     BYTE      P4
      000000B0H   SFRSYM    DATA     BYTE      P3
      000000A0H   SFRSYM    DATA     BYTE      P2
      00000090H   SFRSYM    DATA     BYTE      P1
      00000080H   SFRSYM    DATA     BYTE      P0
      00FF8096H   SYMBOL    CODE     ---       imu660ra_read_register
      00FF78E0H   SYMBOL    CODE     ---       imu660ra_simspi_wr_byte
      00FF7BC8H   SYMBOL    CODE     ---       imu660ra_simspi_r_reg_bytes
      00FF7FB7H   SYMBOL    CODE     ---       imu660ra_read_registers
L251 LINKER/LOCATER V4.66.93.0                                                        07/19/2023  21:09:12  PAGE 68



      00FF78E0H   BLOCK     CODE     ---       LVL=0
      00000BAFH   SYMBOL    EDATA    BYTE      byte
      00FF78E4H   BLOCK     CODE     NEAR LAB  LVL=1
      00000BB0H   SYMBOL    EDATA    BYTE      i
      ---         BLOCKEND  ---      ---       LVL=1
      00FF78E0H   LINE      CODE     ---       #309
      00FF78E4H   LINE      CODE     ---       #310
      00FF78E4H   LINE      CODE     ---       #313
      00FF78EBH   LINE      CODE     ---       #315
      00FF78F9H   LINE      CODE     ---       #316
      00FF7903H   LINE      CODE     ---       #317
      00FF7906H   LINE      CODE     ---       #318
      00FF7909H   LINE      CODE     ---       #319
      00FF790CH   LINE      CODE     ---       #320
      00FF790FH   LINE      CODE     ---       #322
      00FF791DH   LINE      CODE     ---       #323
      00FF7934H   LINE      CODE     ---       #324
      00FF7938H   LINE      CODE     ---       #325
      ---         BLOCKEND  ---      ---       LVL=0
      00000BB1H   SYMBOL    EDATA    BYTE      cmd
      00000BB2H   SYMBOL    EDATA    BYTE      val
      00000888H   SYMBOL    EDATA    BYTE      cmd
      00000889H   SYMBOL    EDATA    ---       dat_addr
      0000088DH   SYMBOL    EDATA    DWORD     len

      00FF7BC8H   BLOCK     CODE     ---       LVL=0
      00000891H   SYMBOL    EDATA    BYTE      cmd
      00000892H   SYMBOL    EDATA    ---       val
      00000896H   SYMBOL    EDATA    DWORD     num
      00FF7BC8H   LINE      CODE     ---       #382
      00FF7BD4H   LINE      CODE     ---       #384
      00FF7BE0H   LINE      CODE     ---       #385
      00FF7BE7H   LINE      CODE     ---       #387
      00FF7BE9H   LINE      CODE     ---       #389
      00FF7BFEH   LINE      CODE     ---       #390
      00FF7C12H   LINE      CODE     ---       #391
      ---         BLOCKEND  ---      ---       LVL=0
      00000BB3H   SYMBOL    EDATA    BYTE      reg
      00000BB4H   SYMBOL    EDATA    BYTE      dat
      0000089AH   SYMBOL    EDATA    BYTE      reg
      0000089BH   SYMBOL    EDATA    ---       dat
      0000089FH   SYMBOL    EDATA    DWORD     len

      00FF8096H   BLOCK     CODE     ---       LVL=0
      00000B73H   SYMBOL    EDATA    BYTE      reg
      00FF809AH   BLOCK     CODE     NEAR LAB  LVL=1
      00000B74H   SYMBOL    EDATA    ---       dat
      ---         BLOCKEND  ---      ---       LVL=1
      00FF8096H   LINE      CODE     ---       #432
      00FF809AH   LINE      CODE     ---       #433
      00FF809AH   LINE      CODE     ---       #435
      00FF809DH   LINE      CODE     ---       #436
      00FF80B0H   LINE      CODE     ---       #437
      00FF80B3H   LINE      CODE     ---       #438
      00FF80B7H   LINE      CODE     ---       #439
      ---         BLOCKEND  ---      ---       LVL=0

      00FF7FB7H   BLOCK     CODE     ---       LVL=0
      000008A3H   SYMBOL    EDATA    BYTE      reg
      000008A4H   SYMBOL    EDATA    ---       dat
      000008A8H   SYMBOL    EDATA    DWORD     len
      00FF7FB7H   LINE      CODE     ---       #450
      00FF7FC3H   LINE      CODE     ---       #452
      00FF7FC6H   LINE      CODE     ---       #453
L251 LINKER/LOCATER V4.66.93.0                                                        07/19/2023  21:09:12  PAGE 69


      00FF7FD9H   LINE      CODE     ---       #454
      00FF7FDCH   LINE      CODE     ---       #455
      ---         BLOCKEND  ---      ---       LVL=0
      00000B30H   SYMBOL    EDATA    BYTE      dat
      00000B31H   SYMBOL    EDATA    BYTE      return_state
      00000B32H   SYMBOL    EDATA    WORD      timeout_count
      00000A04H   SYMBOL    EDATA    ---       dat

      00FF7AE0H   BLOCK     CODE     ---       LVL=0
      00000A0BH   SYMBOL    EDATA    ---       dat
      00FF7AE0H   LINE      CODE     ---       #515
      00FF7AE0H   LINE      CODE     ---       #516
      00FF7AE0H   LINE      CODE     ---       #526
      00FF7AEDH   LINE      CODE     ---       #527
      00FF7B03H   LINE      CODE     ---       #528
      00FF7B19H   LINE      CODE     ---       #529
      00FF7B2FH   LINE      CODE     ---       #531
      ---         BLOCKEND  ---      ---       LVL=0
      00000A63H   SYMBOL    EDATA    INT       acc_value
      00000A65H   SYMBOL    EDATA    FLOAT     acc_dat
      00000A69H   SYMBOL    EDATA    INT       gyro_value
      00000A6BH   SYMBOL    EDATA    FLOAT     gyro_dat
      00000BE4H   SYMBOL    EDATA    BYTE      return_state

      ---         MODULE    ---      ---       SEEKFREE_IMU963RA
      000005D5H   PUBLIC    EDATA    INT       imu963ra_acc_x
      000005D7H   PUBLIC    EDATA    INT       imu963ra_acc_y
      000005D9H   PUBLIC    EDATA    INT       imu963ra_acc_z
      000005DBH   PUBLIC    EDATA    INT       imu963ra_mag_x
      000005DDH   PUBLIC    EDATA    INT       imu963ra_mag_y
      000005DFH   PUBLIC    EDATA    INT       imu963ra_mag_z
      000005E1H   PUBLIC    EDATA    INT       imu963ra_gyro_x
      000005E3H   PUBLIC    EDATA    INT       imu963ra_gyro_y
      000005E5H   PUBLIC    EDATA    INT       imu963ra_gyro_z
      000000D0H   SFRSYM    DATA     BYTE      PSW
      0000009DH   SFRSYM    DATA     BYTE      IRCBAND
      00000097H   SFRSYM    DATA     BYTE      AUXR2
      000000EFH   SFRSYM    DATA     BYTE      AUXINTIF
      000000FDH   SFRSYM    DATA     BYTE      S4CON
      000000ACH   SFRSYM    DATA     BYTE      S3CON
      0000009AH   SFRSYM    DATA     BYTE      S2CON
      000000B7H   SFRSYM    DATA     BYTE      IPH
      000000CDH   SFRSYM    DATA     BYTE      SPSTAT
      000000DDH   SFRSYM    DATA     BYTE      T4T3M
      000000C1H   SFRSYM    DATA     BYTE      WDT_CONTR
      000000DFH   SFRSYM    DATA     BYTE      IP3
      000000F4H   SFRSYM    DATA     BYTE      USBCON
      000000B5H   SFRSYM    DATA     BYTE      IP2
      000000FFH   SFRSYM    DATA     BYTE      RSTCFG
      000000F9H   SFRSYM    DATA     BYTE      LINICR
      0000008EH   SFRSYM    DATA     BYTE      AUXR
      000000AFH   SFRSYM    DATA     BYTE      IE2
      000000C0H.3 SFRSYM    DATA     BIT       P43
      000000C0H.2 SFRSYM    DATA     BIT       P42
      00000088H   SFRSYM    DATA     BYTE      TCON
      000000C0H.1 SFRSYM    DATA     BIT       P41
      00000098H   SFRSYM    DATA     BYTE      SCON
      000000C0H.0 SFRSYM    DATA     BIT       P40
      000000F1H   SFRSYM    DATA     BYTE      CANICR
      00000087H   SFRSYM    DATA     BYTE      PCON
      000000BCH   SFRSYM    DATA     BYTE      ADC_CONTR
      000000E7H   SFRSYM    DATA     BYTE      CMPCR2
      000000E6H   SFRSYM    DATA     BYTE      CMPCR1
      000000B8H   SFRSYM    DATA     BYTE      IP
      0000008FH   SFRSYM    DATA     BYTE      INTCLKO
L251 LINKER/LOCATER V4.66.93.0                                                        07/19/2023  21:09:12  PAGE 70


      000000EEH   SFRSYM    DATA     BYTE      IP3H
      000000B6H   SFRSYM    DATA     BYTE      IP2H
      000000A8H   SFRSYM    DATA     BYTE      IE
      000000BBH   SFRSYM    DATA     BYTE      P_SW3
      000000BAH   SFRSYM    DATA     BYTE      P_SW2
      000000A2H   SFRSYM    DATA     BYTE      P_SW1
      000000CEH   SFRSYM    DATA     BYTE      SPCTL
      000000F8H   SFRSYM    DATA     BYTE      P7
      000000E8H   SFRSYM    DATA     BYTE      P6
      000000C8H   SFRSYM    DATA     BYTE      P5
      000000C0H   SFRSYM    DATA     BYTE      P4
      000000B0H   SFRSYM    DATA     BYTE      P3
      000000A0H   SFRSYM    DATA     BYTE      P2
      00000090H   SFRSYM    DATA     BYTE      P1
      00000080H   SFRSYM    DATA     BYTE      P0
      00FF7939H   SYMBOL    CODE     ---       imu963ra_simspi_wr_byte

      00FF7939H   BLOCK     CODE     ---       LVL=0
      00000BB5H   SYMBOL    EDATA    BYTE      byte
      00FF793DH   BLOCK     CODE     NEAR LAB  LVL=1
      00000BB6H   SYMBOL    EDATA    BYTE      i
      ---         BLOCKEND  ---      ---       LVL=1
      00FF7939H   LINE      CODE     ---       #344
      00FF793DH   LINE      CODE     ---       #345
      00FF793DH   LINE      CODE     ---       #348
      00FF7944H   LINE      CODE     ---       #350
      00FF7952H   LINE      CODE     ---       #351
      00FF795CH   LINE      CODE     ---       #352
      00FF795FH   LINE      CODE     ---       #353
      00FF7962H   LINE      CODE     ---       #355
      00FF7965H   LINE      CODE     ---       #356
      00FF7968H   LINE      CODE     ---       #357
      00FF7976H   LINE      CODE     ---       #358
      00FF798DH   LINE      CODE     ---       #359
      00FF7991H   LINE      CODE     ---       #360
      ---         BLOCKEND  ---      ---       LVL=0
      00000BB7H   SYMBOL    EDATA    BYTE      cmd
      00000BB8H   SYMBOL    EDATA    BYTE      val
      00000AEFH   SYMBOL    EDATA    BYTE      cmd
      00000AF0H   SYMBOL    EDATA    ---       val
      000008ACH   SYMBOL    EDATA    BYTE      cmd
      000008ADH   SYMBOL    EDATA    ---       val
      000008B1H   SYMBOL    EDATA    DWORD     num
      00000BB9H   SYMBOL    EDATA    BYTE      reg
      00000BBAH   SYMBOL    EDATA    BYTE      dat
      00000BBBH   SYMBOL    EDATA    BYTE      reg
      00000BBCH   SYMBOL    EDATA    BYTE      dat
      000008B5H   SYMBOL    EDATA    BYTE      reg
      000008B6H   SYMBOL    EDATA    ---       dat
      000008BAH   SYMBOL    EDATA    DWORD     len
      00000A6FH   SYMBOL    EDATA    BYTE      addr
      00000A70H   SYMBOL    EDATA    BYTE      reg
      00000A71H   SYMBOL    EDATA    BYTE      dat
      00000A72H   SYMBOL    EDATA    BYTE      return_state
      00000A73H   SYMBOL    EDATA    WORD      timeout_count
      00000B34H   SYMBOL    EDATA    BYTE      addr
      00000B35H   SYMBOL    EDATA    BYTE      reg
      00000B36H   SYMBOL    EDATA    WORD      timeout_count
      00000BBDH   SYMBOL    EDATA    BYTE      addr
      00000BBEH   SYMBOL    EDATA    BYTE      reg
      00000B38H   SYMBOL    EDATA    BYTE      return_state
      00000B39H   SYMBOL    EDATA    BYTE      dat
      00000B3AH   SYMBOL    EDATA    WORD      timeout_count
      00000B3CH   SYMBOL    EDATA    BYTE      return_state
      00000B3DH   SYMBOL    EDATA    BYTE      dat
L251 LINKER/LOCATER V4.66.93.0                                                        07/19/2023  21:09:12  PAGE 71


      00000B3EH   SYMBOL    EDATA    WORD      timeout_count
      00000A75H   SYMBOL    EDATA    ---       dat
      00000A7BH   SYMBOL    EDATA    ---       dat
      00000A12H   SYMBOL    EDATA    BYTE      temp_status
      00000A13H   SYMBOL    EDATA    ---       dat
      00000A81H   SYMBOL    EDATA    INT       acc_value
      00000A83H   SYMBOL    EDATA    FLOAT     acc_dat
      00000A87H   SYMBOL    EDATA    INT       gyro_value
      00000A89H   SYMBOL    EDATA    FLOAT     gyro_dat
      00000A8DH   SYMBOL    EDATA    INT       mag_value
      00000A8FH   SYMBOL    EDATA    FLOAT     mag_dat
      00000BE5H   SYMBOL    EDATA    BYTE      return_state

      ---         MODULE    ---      ---       SEEKFREE_IPS114_SPI
      000002A3H   PUBLIC    EDATA    BYTE      ?ips114_showfloat_simspi?BYTE
      000002D3H   PUBLIC    EDATA    BYTE      ?ips114_showfloat?BYTE
      000000D0H   SFRSYM    DATA     BYTE      PSW
      0000009DH   SFRSYM    DATA     BYTE      IRCBAND
      00000097H   SFRSYM    DATA     BYTE      AUXR2
      000000EFH   SFRSYM    DATA     BYTE      AUXINTIF
      000000FDH   SFRSYM    DATA     BYTE      S4CON
      000000ACH   SFRSYM    DATA     BYTE      S3CON
      0000009AH   SFRSYM    DATA     BYTE      S2CON
      000000B7H   SFRSYM    DATA     BYTE      IPH
      000000CDH   SFRSYM    DATA     BYTE      SPSTAT
      000000DDH   SFRSYM    DATA     BYTE      T4T3M
      000000C1H   SFRSYM    DATA     BYTE      WDT_CONTR
      000000DFH   SFRSYM    DATA     BYTE      IP3
      000000F4H   SFRSYM    DATA     BYTE      USBCON
      000000B5H   SFRSYM    DATA     BYTE      IP2
      000000FFH   SFRSYM    DATA     BYTE      RSTCFG
      000000F9H   SFRSYM    DATA     BYTE      LINICR
      0000008EH   SFRSYM    DATA     BYTE      AUXR
      000000AFH   SFRSYM    DATA     BYTE      IE2
      000000A0H.7 SFRSYM    DATA     BIT       P27
      000000A0H.5 SFRSYM    DATA     BIT       P25
      00000088H   SFRSYM    DATA     BYTE      TCON
      000000A0H.3 SFRSYM    DATA     BIT       P23
      00000098H   SFRSYM    DATA     BYTE      SCON
      000000A0H.2 SFRSYM    DATA     BIT       P22
      000000A0H.1 SFRSYM    DATA     BIT       P21
      000000A0H.0 SFRSYM    DATA     BIT       P20
      000000F1H   SFRSYM    DATA     BYTE      CANICR
      00000087H   SFRSYM    DATA     BYTE      PCON
      000000BCH   SFRSYM    DATA     BYTE      ADC_CONTR
      000000E7H   SFRSYM    DATA     BYTE      CMPCR2
      000000E6H   SFRSYM    DATA     BYTE      CMPCR1
      000000B8H   SFRSYM    DATA     BYTE      IP
      0000008FH   SFRSYM    DATA     BYTE      INTCLKO
      000000EEH   SFRSYM    DATA     BYTE      IP3H
      000000B6H   SFRSYM    DATA     BYTE      IP2H
      000000A8H   SFRSYM    DATA     BYTE      IE
      000000BBH   SFRSYM    DATA     BYTE      P_SW3
      000000BAH   SFRSYM    DATA     BYTE      P_SW2
      000000A2H   SFRSYM    DATA     BYTE      P_SW1
      000000CEH   SFRSYM    DATA     BYTE      SPCTL
      000000F8H   SFRSYM    DATA     BYTE      P7
      000000E8H   SFRSYM    DATA     BYTE      P6
      000000C8H   SFRSYM    DATA     BYTE      P5
      000000C0H   SFRSYM    DATA     BYTE      P4
      000000B0H   SFRSYM    DATA     BYTE      P3
      000000A0H   SFRSYM    DATA     BYTE      P2
      00000090H   SFRSYM    DATA     BYTE      P1
      00000080H   SFRSYM    DATA     BYTE      P0
      00000BBFH   SYMBOL    EDATA    BYTE      dat
L251 LINKER/LOCATER V4.66.93.0                                                        07/19/2023  21:09:12  PAGE 72


      00000BC0H   SYMBOL    EDATA    BYTE      i
      00000BC1H   SYMBOL    EDATA    BYTE      dat
      00000BC2H   SYMBOL    EDATA    BYTE      i
      00000B76H   SYMBOL    EDATA    WORD      dat
      00000B78H   SYMBOL    EDATA    BYTE      i
      00000996H   SYMBOL    EDATA    WORD      x1
      00000998H   SYMBOL    EDATA    WORD      y1
      0000099AH   SYMBOL    EDATA    WORD      x2
      0000099CH   SYMBOL    EDATA    WORD      y2
      00000A93H   SYMBOL    EDATA    WORD      color
      00000A95H   SYMBOL    EDATA    WORD      i
      00000A97H   SYMBOL    EDATA    WORD      j
      00000A99H   SYMBOL    EDATA    WORD      x
      00000A9BH   SYMBOL    EDATA    WORD      y
      00000A9DH   SYMBOL    EDATA    WORD      color
      0000099EH   SYMBOL    EDATA    WORD      x
      000009A0H   SYMBOL    EDATA    WORD      y
      000009A2H   SYMBOL    EDATA    CHAR      dat
      000009A3H   SYMBOL    EDATA    BYTE      i
      000009A4H   SYMBOL    EDATA    BYTE      j
      000009A5H   SYMBOL    EDATA    BYTE      temp
      00000804H   SYMBOL    EDATA    WORD      x
      00000806H   SYMBOL    EDATA    WORD      y
      00000808H   SYMBOL    EDATA    ---       dat
      0000080CH   SYMBOL    EDATA    WORD      j
      000008BEH   SYMBOL    EDATA    WORD      x
      000008C0H   SYMBOL    EDATA    WORD      y
      000008C2H   SYMBOL    EDATA    CHAR      dat
      000008C3H   SYMBOL    EDATA    ---       a
      000008C6H   SYMBOL    EDATA    BYTE      i
      000008C7H   SYMBOL    EDATA    WORD      x
      000008C9H   SYMBOL    EDATA    WORD      y
      000008CBH   SYMBOL    EDATA    BYTE      dat
      000008CCH   SYMBOL    EDATA    ---       a
      000008CFH   SYMBOL    EDATA    BYTE      i
      0000070CH   SYMBOL    EDATA    WORD      x
      0000070EH   SYMBOL    EDATA    WORD      y
      00000710H   SYMBOL    EDATA    INT       dat
      00000712H   SYMBOL    EDATA    ---       a
      00000717H   SYMBOL    EDATA    BYTE      i
      00000718H   SYMBOL    EDATA    WORD      x
      0000071AH   SYMBOL    EDATA    WORD      y
      0000071CH   SYMBOL    EDATA    WORD      dat
      0000071EH   SYMBOL    EDATA    ---       a
      00000723H   SYMBOL    EDATA    BYTE      i
      0000044AH   SYMBOL    EDATA    WORD      x
      0000044CH   SYMBOL    EDATA    WORD      y
      0000044EH   SYMBOL    EDATA    LONG      dat
      00000452H   SYMBOL    EDATA    BYTE      num
      00000453H   SYMBOL    EDATA    ---       buff
      00000475H   SYMBOL    EDATA    BYTE      length
      000002A3H   SYMBOL    EDATA    WORD      x
      000002A5H   SYMBOL    EDATA    WORD      y
      000002A7H   SYMBOL    EDATA    FLOAT     dat
      000002ABH   SYMBOL    EDATA    BYTE      num
      000002ACH   SYMBOL    EDATA    BYTE      pointnum
      000002ADH   SYMBOL    EDATA    BYTE      length
      000002AEH   SYMBOL    EDATA    ---       buff
      000002D0H   SYMBOL    EDATA    CHAR      start
      000002D1H   SYMBOL    EDATA    CHAR      end
      000002D2H   SYMBOL    EDATA    CHAR      point
      00000BE6H   SYMBOL    EDATA    BYTE      dat
      00000BE7H   SYMBOL    EDATA    BYTE      dat
      00000B40H   SYMBOL    EDATA    WORD      dat
      00000B42H   SYMBOL    EDATA    ---       dat1
L251 LINKER/LOCATER V4.66.93.0                                                        07/19/2023  21:09:12  PAGE 73


      000009A6H   SYMBOL    EDATA    WORD      x1
      000009A8H   SYMBOL    EDATA    WORD      y1
      000009AAH   SYMBOL    EDATA    WORD      x2
      000009ACH   SYMBOL    EDATA    WORD      y2
      00000A9FH   SYMBOL    EDATA    WORD      color
      00000AA1H   SYMBOL    EDATA    WORD      i
      00000AA3H   SYMBOL    EDATA    WORD      j
      00000AA5H   SYMBOL    EDATA    WORD      x
      00000AA7H   SYMBOL    EDATA    WORD      y
      00000AA9H   SYMBOL    EDATA    WORD      color
      000009AEH   SYMBOL    EDATA    WORD      x
      000009B0H   SYMBOL    EDATA    WORD      y
      000009B2H   SYMBOL    EDATA    CHAR      dat
      000009B3H   SYMBOL    EDATA    BYTE      i
      000009B4H   SYMBOL    EDATA    BYTE      j
      000009B5H   SYMBOL    EDATA    BYTE      temp
      0000080EH   SYMBOL    EDATA    WORD      x
      00000810H   SYMBOL    EDATA    WORD      y
      00000812H   SYMBOL    EDATA    ---       dat
      00000816H   SYMBOL    EDATA    WORD      j
      000008D0H   SYMBOL    EDATA    WORD      x
      000008D2H   SYMBOL    EDATA    WORD      y
      000008D4H   SYMBOL    EDATA    CHAR      dat
      000008D5H   SYMBOL    EDATA    ---       a
      000008D8H   SYMBOL    EDATA    BYTE      i
      000008D9H   SYMBOL    EDATA    WORD      x
      000008DBH   SYMBOL    EDATA    WORD      y
      000008DDH   SYMBOL    EDATA    BYTE      dat
      000008DEH   SYMBOL    EDATA    ---       a
      000008E1H   SYMBOL    EDATA    BYTE      i
      00000724H   SYMBOL    EDATA    WORD      x
      00000726H   SYMBOL    EDATA    WORD      y
      00000728H   SYMBOL    EDATA    INT       dat
      0000072AH   SYMBOL    EDATA    ---       a
      0000072FH   SYMBOL    EDATA    BYTE      i
      00000730H   SYMBOL    EDATA    WORD      x
      00000732H   SYMBOL    EDATA    WORD      y
      00000734H   SYMBOL    EDATA    WORD      dat
      00000736H   SYMBOL    EDATA    ---       a
      0000073BH   SYMBOL    EDATA    BYTE      i
      00000476H   SYMBOL    EDATA    WORD      x
      00000478H   SYMBOL    EDATA    WORD      y
      0000047AH   SYMBOL    EDATA    LONG      dat
      0000047EH   SYMBOL    EDATA    BYTE      num
      0000047FH   SYMBOL    EDATA    ---       buff
      000004A1H   SYMBOL    EDATA    BYTE      length
      000002D3H   SYMBOL    EDATA    WORD      x
      000002D5H   SYMBOL    EDATA    WORD      y
      000002D7H   SYMBOL    EDATA    FLOAT     dat
      000002DBH   SYMBOL    EDATA    BYTE      num
      000002DCH   SYMBOL    EDATA    BYTE      pointnum
      000002DDH   SYMBOL    EDATA    BYTE      length
      000002DEH   SYMBOL    EDATA    ---       buff
      00000300H   SYMBOL    EDATA    CHAR      start
      00000301H   SYMBOL    EDATA    CHAR      end
      00000302H   SYMBOL    EDATA    CHAR      point

      ---         MODULE    ---      ---       SEEKFREE_MPU6050
      0000073CH   PUBLIC    EDATA    INT       mpu6050_acc_x
      0000073EH   PUBLIC    EDATA    INT       mpu6050_acc_y
      00000740H   PUBLIC    EDATA    INT       mpu6050_acc_z
      00000742H   PUBLIC    EDATA    INT       mpu6050_gyro_x
      00000744H   PUBLIC    EDATA    INT       mpu6050_gyro_y
      00000746H   PUBLIC    EDATA    INT       mpu6050_gyro_z
      000000D0H   SFRSYM    DATA     BYTE      PSW
L251 LINKER/LOCATER V4.66.93.0                                                        07/19/2023  21:09:12  PAGE 74


      0000009DH   SFRSYM    DATA     BYTE      IRCBAND
      00000097H   SFRSYM    DATA     BYTE      AUXR2
      000000EFH   SFRSYM    DATA     BYTE      AUXINTIF
      000000FDH   SFRSYM    DATA     BYTE      S4CON
      000000ACH   SFRSYM    DATA     BYTE      S3CON
      0000009AH   SFRSYM    DATA     BYTE      S2CON
      000000B7H   SFRSYM    DATA     BYTE      IPH
      000000CDH   SFRSYM    DATA     BYTE      SPSTAT
      000000DDH   SFRSYM    DATA     BYTE      T4T3M
      000000C1H   SFRSYM    DATA     BYTE      WDT_CONTR
      000000DFH   SFRSYM    DATA     BYTE      IP3
      000000F4H   SFRSYM    DATA     BYTE      USBCON
      000000B5H   SFRSYM    DATA     BYTE      IP2
      000000FFH   SFRSYM    DATA     BYTE      RSTCFG
      000000F9H   SFRSYM    DATA     BYTE      LINICR
      0000008EH   SFRSYM    DATA     BYTE      AUXR
      000000AFH   SFRSYM    DATA     BYTE      IE2
      00000088H   SFRSYM    DATA     BYTE      TCON
      000000C0H.1 SFRSYM    DATA     BIT       P41
      00000098H   SFRSYM    DATA     BYTE      SCON
      000000C0H.0 SFRSYM    DATA     BIT       P40
      000000F1H   SFRSYM    DATA     BYTE      CANICR
      00000087H   SFRSYM    DATA     BYTE      PCON
      000000BCH   SFRSYM    DATA     BYTE      ADC_CONTR
      000000E7H   SFRSYM    DATA     BYTE      CMPCR2
      000000E6H   SFRSYM    DATA     BYTE      CMPCR1
      000000B8H   SFRSYM    DATA     BYTE      IP
      0000008FH   SFRSYM    DATA     BYTE      INTCLKO
      000000EEH   SFRSYM    DATA     BYTE      IP3H
      000000B6H   SFRSYM    DATA     BYTE      IP2H
      000000A8H   SFRSYM    DATA     BYTE      IE
      000000BBH   SFRSYM    DATA     BYTE      P_SW3
      000000BAH   SFRSYM    DATA     BYTE      P_SW2
      000000A2H   SFRSYM    DATA     BYTE      P_SW1
      000000CEH   SFRSYM    DATA     BYTE      SPCTL
      000000F8H   SFRSYM    DATA     BYTE      P7
      000000E8H   SFRSYM    DATA     BYTE      P6
      000000C8H   SFRSYM    DATA     BYTE      P5
      000000C0H   SFRSYM    DATA     BYTE      P4
      000000B0H   SFRSYM    DATA     BYTE      P3
      000000A0H   SFRSYM    DATA     BYTE      P2
      00000090H   SFRSYM    DATA     BYTE      P1
      00000080H   SFRSYM    DATA     BYTE      P0
      00000BC3H   SYMBOL    EDATA    WORD      j
      00000BE8H   SYMBOL    EDATA    BYTE      ack_dat
      00000BC5H   SYMBOL    EDATA    BYTE      c
      00000BC6H   SYMBOL    EDATA    BYTE      i
      00000B79H   SYMBOL    EDATA    BYTE      ack_x
      00000B7AH   SYMBOL    EDATA    BYTE      i
      00000B7BH   SYMBOL    EDATA    BYTE      c
      00000B7CH   SYMBOL    EDATA    BYTE      dev_add
      00000B7DH   SYMBOL    EDATA    BYTE      reg
      00000B7EH   SYMBOL    EDATA    BYTE      dat
      00000B7FH   SYMBOL    EDATA    BYTE      dev_add
      00000B80H   SYMBOL    EDATA    BYTE      reg
      00000B81H   SYMBOL    EDATA    BYTE      dat
      00000A19H   SYMBOL    EDATA    BYTE      dev_add
      00000A1AH   SYMBOL    EDATA    BYTE      reg
      00000A1BH   SYMBOL    EDATA    ---       dat_add
      00000A1FH   SYMBOL    EDATA    BYTE      num
      00000AABH   SYMBOL    EDATA    ---       dat
      00000AB1H   SYMBOL    EDATA    ---       dat

      ---         MODULE    ---      ---       SEEKFREE_OLED
      00000303H   PUBLIC    EDATA    BYTE      ?oled_printf_float?BYTE
L251 LINKER/LOCATER V4.66.93.0                                                        07/19/2023  21:09:12  PAGE 75


      00000333H   PUBLIC    EDATA    BYTE      ?oled_printf_float_spi?BYTE
      000000D0H   SFRSYM    DATA     BYTE      PSW
      0000009DH   SFRSYM    DATA     BYTE      IRCBAND
      00000097H   SFRSYM    DATA     BYTE      AUXR2
      000000EFH   SFRSYM    DATA     BYTE      AUXINTIF
      000000FDH   SFRSYM    DATA     BYTE      S4CON
      000000ACH   SFRSYM    DATA     BYTE      S3CON
      0000009AH   SFRSYM    DATA     BYTE      S2CON
      000000B7H   SFRSYM    DATA     BYTE      IPH
      000000CDH   SFRSYM    DATA     BYTE      SPSTAT
      000000DDH   SFRSYM    DATA     BYTE      T4T3M
      000000C1H   SFRSYM    DATA     BYTE      WDT_CONTR
      000000DFH   SFRSYM    DATA     BYTE      IP3
      000000F4H   SFRSYM    DATA     BYTE      USBCON
      000000B5H   SFRSYM    DATA     BYTE      IP2
      000000FFH   SFRSYM    DATA     BYTE      RSTCFG
      000000F9H   SFRSYM    DATA     BYTE      LINICR
      0000008EH   SFRSYM    DATA     BYTE      AUXR
      000000AFH   SFRSYM    DATA     BYTE      IE2
      000000A0H.5 SFRSYM    DATA     BIT       P25
      00000088H   SFRSYM    DATA     BYTE      TCON
      000000A0H.3 SFRSYM    DATA     BIT       P23
      00000098H   SFRSYM    DATA     BYTE      SCON
      000000A0H.2 SFRSYM    DATA     BIT       P22
      000000A0H.1 SFRSYM    DATA     BIT       P21
      000000A0H.0 SFRSYM    DATA     BIT       P20
      000000F1H   SFRSYM    DATA     BYTE      CANICR
      00000087H   SFRSYM    DATA     BYTE      PCON
      000000BCH   SFRSYM    DATA     BYTE      ADC_CONTR
      000000E7H   SFRSYM    DATA     BYTE      CMPCR2
      000000E6H   SFRSYM    DATA     BYTE      CMPCR1
      000000B8H   SFRSYM    DATA     BYTE      IP
      0000008FH   SFRSYM    DATA     BYTE      INTCLKO
      000000EEH   SFRSYM    DATA     BYTE      IP3H
      000000B6H   SFRSYM    DATA     BYTE      IP2H
      000000A8H   SFRSYM    DATA     BYTE      IE
      000000BBH   SFRSYM    DATA     BYTE      P_SW3
      000000BAH   SFRSYM    DATA     BYTE      P_SW2
      000000A2H   SFRSYM    DATA     BYTE      P_SW1
      000000CEH   SFRSYM    DATA     BYTE      SPCTL
      000000F8H   SFRSYM    DATA     BYTE      P7
      000000E8H   SFRSYM    DATA     BYTE      P6
      000000C8H   SFRSYM    DATA     BYTE      P5
      000000C0H   SFRSYM    DATA     BYTE      P4
      000000B0H   SFRSYM    DATA     BYTE      P3
      000000A0H   SFRSYM    DATA     BYTE      P2
      00000090H   SFRSYM    DATA     BYTE      P1
      00000080H   SFRSYM    DATA     BYTE      P0
      00000BC7H   SYMBOL    EDATA    BYTE      dat
      00000BC8H   SYMBOL    EDATA    BYTE      i
      00000BC9H   SYMBOL    EDATA    BYTE      cmd
      00000BCAH   SYMBOL    EDATA    BYTE      i
      000009B6H   SYMBOL    EDATA    WORD      hex
      000009B8H   SYMBOL    EDATA    ---       Print
      000009BCH   SYMBOL    EDATA    BYTE      hexcheck
      000009BDH   SYMBOL    EDATA    BYTE      TEMP
      00000BCBH   SYMBOL    EDATA    BYTE      x
      00000BCCH   SYMBOL    EDATA    BYTE      y
      00000B82H   SYMBOL    EDATA    BYTE      bmp_data
      00000B83H   SYMBOL    EDATA    BYTE      y
      00000B84H   SYMBOL    EDATA    BYTE      x
      00000B85H   SYMBOL    EDATA    BYTE      x
      00000B86H   SYMBOL    EDATA    BYTE      y
      00000B87H   SYMBOL    EDATA    BYTE      data1
      00000BCDH   SYMBOL    EDATA    BYTE      x
L251 LINKER/LOCATER V4.66.93.0                                                        07/19/2023  21:09:12  PAGE 76


      00000BCEH   SYMBOL    EDATA    BYTE      y
      000008E2H   SYMBOL    EDATA    BYTE      x
      000008E3H   SYMBOL    EDATA    BYTE      y
      000008E4H   SYMBOL    EDATA    ---       ch
      000008E8H   SYMBOL    EDATA    BYTE      c
      000008E9H   SYMBOL    EDATA    BYTE      i
      000008EAH   SYMBOL    EDATA    BYTE      j
      000008EBH   SYMBOL    EDATA    BYTE      x
      000008ECH   SYMBOL    EDATA    BYTE      y
      000008EDH   SYMBOL    EDATA    ---       ch
      000008F1H   SYMBOL    EDATA    BYTE      c
      000008F2H   SYMBOL    EDATA    BYTE      i
      000008F3H   SYMBOL    EDATA    BYTE      j
      0000079CH   SYMBOL    EDATA    BYTE      x
      0000079DH   SYMBOL    EDATA    BYTE      y
      0000079EH   SYMBOL    EDATA    WORD      num
      000007A0H   SYMBOL    EDATA    ---       ch
      000007A7H   SYMBOL    EDATA    BYTE      x
      000007A8H   SYMBOL    EDATA    BYTE      y
      000007A9H   SYMBOL    EDATA    INT       num
      000007ABH   SYMBOL    EDATA    ---       ch
      000004A2H   SYMBOL    EDATA    WORD      x
      000004A4H   SYMBOL    EDATA    WORD      y
      000004A6H   SYMBOL    EDATA    LONG      dat
      000004AAH   SYMBOL    EDATA    BYTE      num
      000004ABH   SYMBOL    EDATA    ---       buff
      000004CDH   SYMBOL    EDATA    BYTE      length
      00000303H   SYMBOL    EDATA    WORD      x
      00000305H   SYMBOL    EDATA    WORD      y
      00000307H   SYMBOL    EDATA    FLOAT     dat
      0000030BH   SYMBOL    EDATA    BYTE      num
      0000030CH   SYMBOL    EDATA    BYTE      pointnum
      0000030DH   SYMBOL    EDATA    BYTE      length
      0000030EH   SYMBOL    EDATA    ---       buff
      00000330H   SYMBOL    EDATA    CHAR      start
      00000331H   SYMBOL    EDATA    CHAR      end
      00000332H   SYMBOL    EDATA    CHAR      point
      000005E7H   SYMBOL    EDATA    WORD      high
      000005E9H   SYMBOL    EDATA    WORD      width
      000005EBH   SYMBOL    EDATA    ---       p
      000005EFH   SYMBOL    EDATA    BYTE      value
      000005F0H   SYMBOL    EDATA    WORD      i
      000005F2H   SYMBOL    EDATA    WORD      j
      000005F4H   SYMBOL    EDATA    WORD      temp
      000005F6H   SYMBOL    EDATA    WORD      temp1
      000005F8H   SYMBOL    EDATA    BYTE      dat
      00000637H   SYMBOL    EDATA    BYTE      x
      00000638H   SYMBOL    EDATA    BYTE      y
      00000639H   SYMBOL    EDATA    BYTE      size
      0000063AH   SYMBOL    EDATA    ---       p
      0000063EH   SYMBOL    EDATA    BYTE      len
      0000063FH   SYMBOL    EDATA    WORD      i
      00000641H   SYMBOL    EDATA    WORD      j
      00000643H   SYMBOL    EDATA    WORD      k
      00000BE9H   SYMBOL    EDATA    BYTE      dat
      00000BEAH   SYMBOL    EDATA    BYTE      cmd
      000009BEH   SYMBOL    EDATA    WORD      hex
      000009C0H   SYMBOL    EDATA    ---       Print
      000009C4H   SYMBOL    EDATA    BYTE      hexcheck
      000009C5H   SYMBOL    EDATA    BYTE      TEMP
      00000BCFH   SYMBOL    EDATA    BYTE      x
      00000BD0H   SYMBOL    EDATA    BYTE      y
      00000B88H   SYMBOL    EDATA    BYTE      bmp_data
      00000B89H   SYMBOL    EDATA    BYTE      y
      00000B8AH   SYMBOL    EDATA    BYTE      x
L251 LINKER/LOCATER V4.66.93.0                                                        07/19/2023  21:09:12  PAGE 77


      00000B8BH   SYMBOL    EDATA    BYTE      x
      00000B8CH   SYMBOL    EDATA    BYTE      y
      00000B8DH   SYMBOL    EDATA    BYTE      data1
      00000BD1H   SYMBOL    EDATA    BYTE      x
      00000BD2H   SYMBOL    EDATA    BYTE      y
      000008F4H   SYMBOL    EDATA    BYTE      x
      000008F5H   SYMBOL    EDATA    BYTE      y
      000008F6H   SYMBOL    EDATA    ---       ch
      000008FAH   SYMBOL    EDATA    BYTE      c
      000008FBH   SYMBOL    EDATA    BYTE      i
      000008FCH   SYMBOL    EDATA    BYTE      j
      000008FDH   SYMBOL    EDATA    BYTE      x
      000008FEH   SYMBOL    EDATA    BYTE      y
      000008FFH   SYMBOL    EDATA    ---       ch
      00000903H   SYMBOL    EDATA    BYTE      c
      00000904H   SYMBOL    EDATA    BYTE      i
      00000905H   SYMBOL    EDATA    BYTE      j
      000007B2H   SYMBOL    EDATA    BYTE      x
      000007B3H   SYMBOL    EDATA    BYTE      y
      000007B4H   SYMBOL    EDATA    WORD      num
      000007B6H   SYMBOL    EDATA    ---       ch
      000007BDH   SYMBOL    EDATA    BYTE      x
      000007BEH   SYMBOL    EDATA    BYTE      y
      000007BFH   SYMBOL    EDATA    INT       num
      000007C1H   SYMBOL    EDATA    ---       ch
      000004CEH   SYMBOL    EDATA    WORD      x
      000004D0H   SYMBOL    EDATA    WORD      y
      000004D2H   SYMBOL    EDATA    LONG      dat
      000004D6H   SYMBOL    EDATA    BYTE      num
      000004D7H   SYMBOL    EDATA    ---       buff
      000004F9H   SYMBOL    EDATA    BYTE      length
      00000333H   SYMBOL    EDATA    WORD      x
      00000335H   SYMBOL    EDATA    WORD      y
      00000337H   SYMBOL    EDATA    FLOAT     dat
      0000033BH   SYMBOL    EDATA    BYTE      num
      0000033CH   SYMBOL    EDATA    BYTE      pointnum
      0000033DH   SYMBOL    EDATA    BYTE      length
      0000033EH   SYMBOL    EDATA    ---       buff
      00000360H   SYMBOL    EDATA    CHAR      start
      00000361H   SYMBOL    EDATA    CHAR      end
      00000362H   SYMBOL    EDATA    CHAR      point
      000005F9H   SYMBOL    EDATA    WORD      high
      000005FBH   SYMBOL    EDATA    WORD      width
      000005FDH   SYMBOL    EDATA    ---       p
      00000601H   SYMBOL    EDATA    BYTE      value
      00000602H   SYMBOL    EDATA    WORD      i
      00000604H   SYMBOL    EDATA    WORD      j
      00000606H   SYMBOL    EDATA    WORD      temp
      00000608H   SYMBOL    EDATA    WORD      temp1
      0000060AH   SYMBOL    EDATA    BYTE      dat
      00000645H   SYMBOL    EDATA    BYTE      x
      00000646H   SYMBOL    EDATA    BYTE      y
      00000647H   SYMBOL    EDATA    BYTE      size
      00000648H   SYMBOL    EDATA    ---       p
      0000064CH   SYMBOL    EDATA    BYTE      len
      0000064DH   SYMBOL    EDATA    WORD      i
      0000064FH   SYMBOL    EDATA    WORD      j
      00000651H   SYMBOL    EDATA    WORD      k

      ---         MODULE    ---      ---       SEEKFREE_PRINTF
      00FF648EH   PUBLIC    CODE     ---       number_conversion_ascii
      00FF4164H   PUBLIC    CODE     ---       zf_sprintf
      00FF6EB7H   PUBLIC    CODE     ---       printf_reverse_order
      000005AEH   PUBLIC    EDATA    BYTE      ?number_conversion_ascii?BYTE
      0000010DH   PUBLIC    EDATA    BYTE      ?zf_sprintf?BYTE
L251 LINKER/LOCATER V4.66.93.0                                                        07/19/2023  21:09:12  PAGE 78


      000000D0H   SFRSYM    DATA     BYTE      PSW
      0000009DH   SFRSYM    DATA     BYTE      IRCBAND
      00000097H   SFRSYM    DATA     BYTE      AUXR2
      000000EFH   SFRSYM    DATA     BYTE      AUXINTIF
      000000FDH   SFRSYM    DATA     BYTE      S4CON
      000000ACH   SFRSYM    DATA     BYTE      S3CON
      0000009AH   SFRSYM    DATA     BYTE      S2CON
      000000B7H   SFRSYM    DATA     BYTE      IPH
      000000CDH   SFRSYM    DATA     BYTE      SPSTAT
      000000DDH   SFRSYM    DATA     BYTE      T4T3M
      000000C1H   SFRSYM    DATA     BYTE      WDT_CONTR
      000000DFH   SFRSYM    DATA     BYTE      IP3
      000000F4H   SFRSYM    DATA     BYTE      USBCON
      000000B5H   SFRSYM    DATA     BYTE      IP2
      000000FFH   SFRSYM    DATA     BYTE      RSTCFG
      000000F9H   SFRSYM    DATA     BYTE      LINICR
      0000008EH   SFRSYM    DATA     BYTE      AUXR
      000000AFH   SFRSYM    DATA     BYTE      IE2
      00000088H   SFRSYM    DATA     BYTE      TCON
      00000098H   SFRSYM    DATA     BYTE      SCON
      000000F1H   SFRSYM    DATA     BYTE      CANICR
      00000087H   SFRSYM    DATA     BYTE      PCON
      000000BCH   SFRSYM    DATA     BYTE      ADC_CONTR
      000000E7H   SFRSYM    DATA     BYTE      CMPCR2
      000000E6H   SFRSYM    DATA     BYTE      CMPCR1
      000000B8H   SFRSYM    DATA     BYTE      IP
      0000008FH   SFRSYM    DATA     BYTE      INTCLKO
      000000EEH   SFRSYM    DATA     BYTE      IP3H
      000000B6H   SFRSYM    DATA     BYTE      IP2H
      000000A8H   SFRSYM    DATA     BYTE      IE
      000000BBH   SFRSYM    DATA     BYTE      P_SW3
      000000BAH   SFRSYM    DATA     BYTE      P_SW2
      000000A2H   SFRSYM    DATA     BYTE      P_SW1
      000000CEH   SFRSYM    DATA     BYTE      SPCTL
      000000F8H   SFRSYM    DATA     BYTE      P7
      000000E8H   SFRSYM    DATA     BYTE      P6
      000000C8H   SFRSYM    DATA     BYTE      P5
      000000C0H   SFRSYM    DATA     BYTE      P4
      000000B0H   SFRSYM    DATA     BYTE      P3
      000000A0H   SFRSYM    DATA     BYTE      P2
      00000090H   SFRSYM    DATA     BYTE      P1
      00000080H   SFRSYM    DATA     BYTE      P0

      00FF648EH   BLOCK     CODE     ---       LVL=0
      000005AEH   SYMBOL    EDATA    DWORD     dat
      000005B2H   SYMBOL    EDATA    ---       p
      000005B6H   SYMBOL    EDATA    BYTE      neg_type
      000005B7H   SYMBOL    EDATA    BYTE      radix
      00FF649AH   BLOCK     CODE     NEAR LAB  LVL=1
      000005B8H   SYMBOL    EDATA    LONG      neg_dat
      000005BCH   SYMBOL    EDATA    DWORD     pos_dat
      000005C0H   SYMBOL    EDATA    BYTE      temp_data
      000005C1H   SYMBOL    EDATA    BYTE      valid_num
      ---         BLOCKEND  ---      ---       LVL=1
      00FF648EH   LINE      CODE     ---       #29
      00FF649AH   LINE      CODE     ---       #30
      00FF649AH   LINE      CODE     ---       #33
      00FF649FH   LINE      CODE     ---       #34
      00FF64A4H   LINE      CODE     ---       #36
      00FF64ADH   LINE      CODE     ---       #38
      00FF64B5H   LINE      CODE     ---       #39
      00FF64CDH   LINE      CODE     ---       #40
      00FF64CDH   LINE      CODE     ---       #42
      00FF64E9H   LINE      CODE     ---       #43
      00FF64FCH   LINE      CODE     ---       #44
L251 LINKER/LOCATER V4.66.93.0                                                        07/19/2023  21:09:12  PAGE 79


      00FF6509H   LINE      CODE     ---       #46
      00FF6511H   LINE      CODE     ---       #47
      00FF651BH   LINE      CODE     ---       #48
      00FF651DH   LINE      CODE     ---       #49
      00FF6520H   LINE      CODE     ---       #52
      00FF6528H   LINE      CODE     ---       #53
      00FF6528H   LINE      CODE     ---       #55
      00FF653DH   LINE      CODE     ---       #56
      00FF6555H   LINE      CODE     ---       #57
      00FF6561H   LINE      CODE     ---       #59
      00FF656CH   LINE      CODE     ---       #61
      00FF657FH   LINE      CODE     ---       #62
      00FF658CH   LINE      CODE     ---       #64
      00FF6594H   LINE      CODE     ---       #65
      00FF659EH   LINE      CODE     ---       #66
      00FF65A0H   LINE      CODE     ---       #67
      00FF65A0H   LINE      CODE     ---       #68
      00FF65A4H   LINE      CODE     ---       #69
      ---         BLOCKEND  ---      ---       LVL=0

      00FF6EB7H   BLOCK     CODE     ---       LVL=0
      0000066EH   SYMBOL    EDATA    ---       d_buff
      00000672H   SYMBOL    EDATA    DWORD     len
      00FF6EBFH   BLOCK     CODE     NEAR LAB  LVL=1
      00000676H   SYMBOL    EDATA    DWORD     i
      0000067AH   SYMBOL    EDATA    CHAR      temp_data
      ---         BLOCKEND  ---      ---       LVL=1
      00FF6EB7H   LINE      CODE     ---       #71
      00FF6EBFH   LINE      CODE     ---       #72
      00FF6EBFH   LINE      CODE     ---       #75
      00FF6EC7H   LINE      CODE     ---       #77
      00FF6EE6H   LINE      CODE     ---       #78
      00FF6F10H   LINE      CODE     ---       #79
      00FF6F23H   LINE      CODE     ---       #80
      00FF6F4BH   LINE      CODE     ---       #81
      ---         BLOCKEND  ---      ---       LVL=0

      00FF4164H   BLOCK     CODE     ---       LVL=0
      0000010DH   SYMBOL    EDATA    ---       buff
      00000111H   SYMBOL    EDATA    ---       format
      00FF416CH   BLOCK     CODE     NEAR LAB  LVL=1
      00000115H   SYMBOL    EDATA    DWORD     buff_len
      00000119H   SYMBOL    EDATA    ---       arg
      00FF4181H   BLOCK     CODE     NEAR LAB  LVL=2
      0000011DH   SYMBOL    EDATA    CHAR      ret
      00FF42B6H   BLOCK     CODE     NEAR LAB  LVL=3
      0000011EH   SYMBOL    EDATA    CHAR      ch
      ---         BLOCKEND  ---      ---       LVL=3
      00FF42F5H   BLOCK     CODE     NEAR LAB  LVL=3
      0000011EH   SYMBOL    EDATA    ---       vstr
      0000013FH   SYMBOL    EDATA    LONG      ival
      00000143H   SYMBOL    EDATA    BYTE      vlen
      ---         BLOCKEND  ---      ---       LVL=3
      00FF4396H   BLOCK     CODE     NEAR LAB  LVL=3
      0000011EH   SYMBOL    EDATA    ---       vstr
      0000013FH   SYMBOL    EDATA    FLOAT     ival
      00000143H   SYMBOL    EDATA    BYTE      vlen
      ---         BLOCKEND  ---      ---       LVL=3
      00FF4527H   BLOCK     CODE     NEAR LAB  LVL=3
      0000011EH   SYMBOL    EDATA    ---       vstr
      0000013FH   SYMBOL    EDATA    DWORD     ival
      00000143H   SYMBOL    EDATA    BYTE      vlen
      ---         BLOCKEND  ---      ---       LVL=3
      00FF459FH   BLOCK     CODE     NEAR LAB  LVL=3
      0000011EH   SYMBOL    EDATA    ---       vstr
L251 LINKER/LOCATER V4.66.93.0                                                        07/19/2023  21:09:12  PAGE 80


      0000013FH   SYMBOL    EDATA    DWORD     ival
      00000143H   SYMBOL    EDATA    BYTE      vlen
      ---         BLOCKEND  ---      ---       LVL=3
      00FF4617H   BLOCK     CODE     NEAR LAB  LVL=3
      0000011EH   SYMBOL    EDATA    ---       vstr
      0000013FH   SYMBOL    EDATA    DWORD     ival
      00000143H   SYMBOL    EDATA    BYTE      vlen
      ---         BLOCKEND  ---      ---       LVL=3
      00FF468FH   BLOCK     CODE     NEAR LAB  LVL=3
      0000011EH   SYMBOL    EDATA    ---       pc
      ---         BLOCKEND  ---      ---       LVL=3
      00FF46E9H   BLOCK     CODE     NEAR LAB  LVL=3
      0000011EH   SYMBOL    EDATA    ---       vstr
      0000013FH   SYMBOL    EDATA    DWORD     ival
      ---         BLOCKEND  ---      ---       LVL=3
      ---         BLOCKEND  ---      ---       LVL=2
      ---         BLOCKEND  ---      ---       LVL=1
      00FF4164H   LINE      CODE     ---       #216
      00FF416CH   LINE      CODE     ---       #217
      00FF416CH   LINE      CODE     ---       #218
      00FF4172H   LINE      CODE     ---       #220
      00FF417EH   LINE      CODE     ---       #222
      00FF4181H   LINE      CODE     ---       #223
      00FF4181H   LINE      CODE     ---       #224
      00FF418CH   LINE      CODE     ---       #225
      00FF4198H   LINE      CODE     ---       #227
      00FF42B3H   LINE      CODE     ---       #229
      00FF42B3H   LINE      CODE     ---       #233
      00FF42B6H   LINE      CODE     ---       #236
      00FF42B6H   LINE      CODE     ---       #237
      00FF42B6H   LINE      CODE     ---       #238
      00FF42CFH   LINE      CODE     ---       #239
      00FF42DAH   LINE      CODE     ---       #240
      00FF42E4H   LINE      CODE     ---       #241
      00FF42F2H   LINE      CODE     ---       #243
      00FF42F5H   LINE      CODE     ---       #246
      00FF42F5H   LINE      CODE     ---       #247
      00FF42F5H   LINE      CODE     ---       #248
      00FF42F5H   LINE      CODE     ---       #250
      00FF430EH   LINE      CODE     ---       #251
      00FF4325H   LINE      CODE     ---       #253
      00FF432FH   LINE      CODE     ---       #255
      00FF4340H   LINE      CODE     ---       #256
      00FF434DH   LINE      CODE     ---       #257
      00FF434DH   LINE      CODE     ---       #258
      00FF435CH   LINE      CODE     ---       #259
      00FF4371H   LINE      CODE     ---       #260
      00FF4381H   LINE      CODE     ---       #261
      00FF4393H   LINE      CODE     ---       #264
      00FF4396H   LINE      CODE     ---       #266
      00FF4396H   LINE      CODE     ---       #267
      00FF4396H   LINE      CODE     ---       #268
      00FF4396H   LINE      CODE     ---       #270
      00FF43AFH   LINE      CODE     ---       #271
      00FF43C9H   LINE      CODE     ---       #273
      00FF43D4H   LINE      CODE     ---       #275
      00FF43E5H   LINE      CODE     ---       #276
      00FF43F2H   LINE      CODE     ---       #277
      00FF43F2H   LINE      CODE     ---       #278
      00FF4401H   LINE      CODE     ---       #279
      00FF4416H   LINE      CODE     ---       #280
      00FF4426H   LINE      CODE     ---       #281
      00FF4438H   LINE      CODE     ---       #283
      00FF445CH   LINE      CODE     ---       #284
      00FF4460H   LINE      CODE     ---       #286
L251 LINKER/LOCATER V4.66.93.0                                                        07/19/2023  21:09:12  PAGE 81


      00FF447AH   LINE      CODE     ---       #287
      00FF447CH   LINE      CODE     ---       #290
      00FF44A0H   LINE      CODE     ---       #291
      00FF44A6H   LINE      CODE     ---       #292
      00FF44A6H   LINE      CODE     ---       #294
      00FF44A8H   LINE      CODE     ---       #296
      00FF44B9H   LINE      CODE     ---       #297
      00FF44C6H   LINE      CODE     ---       #298
      00FF44D0H   LINE      CODE     ---       #300
      00FF44E1H   LINE      CODE     ---       #301
      00FF44EEH   LINE      CODE     ---       #303
      00FF44FDH   LINE      CODE     ---       #304
      00FF4512H   LINE      CODE     ---       #305
      00FF4524H   LINE      CODE     ---       #307
      00FF4527H   LINE      CODE     ---       #310
      00FF4527H   LINE      CODE     ---       #311
      00FF4527H   LINE      CODE     ---       #313
      00FF4540H   LINE      CODE     ---       #314
      00FF4556H   LINE      CODE     ---       #316
      00FF4565H   LINE      CODE     ---       #317
      00FF457AH   LINE      CODE     ---       #318
      00FF458AH   LINE      CODE     ---       #319
      00FF459CH   LINE      CODE     ---       #320
      00FF459FH   LINE      CODE     ---       #322
      00FF459FH   LINE      CODE     ---       #323
      00FF459FH   LINE      CODE     ---       #325
      00FF45B8H   LINE      CODE     ---       #326
      00FF45CEH   LINE      CODE     ---       #328
      00FF45DDH   LINE      CODE     ---       #329
      00FF45F2H   LINE      CODE     ---       #330
      00FF4602H   LINE      CODE     ---       #331
      00FF4614H   LINE      CODE     ---       #333
      00FF4617H   LINE      CODE     ---       #335
      00FF4617H   LINE      CODE     ---       #336
      00FF4617H   LINE      CODE     ---       #337
      00FF4617H   LINE      CODE     ---       #339
      00FF4630H   LINE      CODE     ---       #340
      00FF4646H   LINE      CODE     ---       #342
      00FF4655H   LINE      CODE     ---       #343
      00FF466AH   LINE      CODE     ---       #344
      00FF467AH   LINE      CODE     ---       #345
      00FF468CH   LINE      CODE     ---       #346
      00FF468FH   LINE      CODE     ---       #349
      00FF468FH   LINE      CODE     ---       #350
      00FF468FH   LINE      CODE     ---       #351
      00FF46A8H   LINE      CODE     ---       #352
      00FF46AAH   LINE      CODE     ---       #354
      00FF46B8H   LINE      CODE     ---       #355
      00FF46C2H   LINE      CODE     ---       #356
      00FF46D0H   LINE      CODE     ---       #357
      00FF46DAH   LINE      CODE     ---       #358
      00FF46E6H   LINE      CODE     ---       #359
      00FF46E9H   LINE      CODE     ---       #361
      00FF46E9H   LINE      CODE     ---       #362
      00FF46E9H   LINE      CODE     ---       #364
      00FF4702H   LINE      CODE     ---       #366
      00FF4714H   LINE      CODE     ---       #368
      00FF471FH   LINE      CODE     ---       #369
      00FF4732H   LINE      CODE     ---       #370
      00FF473EH   LINE      CODE     ---       #371
      00FF474CH   LINE      CODE     ---       #373
      00FF474EH   LINE      CODE     ---       #376
      00FF474EH   LINE      CODE     ---       #378
      00FF4757H   LINE      CODE     ---       #379
      00FF4761H   LINE      CODE     ---       #380
L251 LINKER/LOCATER V4.66.93.0                                                        07/19/2023  21:09:12  PAGE 82


      00FF476FH   LINE      CODE     ---       #381
      00FF4771H   LINE      CODE     ---       #383
      00FF4771H   LINE      CODE     ---       #384
      00FF4771H   LINE      CODE     ---       #385
      00FF4771H   LINE      CODE     ---       #388
      00FF477FH   LINE      CODE     ---       #389
      00FF4789H   LINE      CODE     ---       #390
      00FF4797H   LINE      CODE     ---       #391
      00FF4797H   LINE      CODE     ---       #392
      00FF47A1H   LINE      CODE     ---       #393
      00FF47B0H   LINE      CODE     ---       #396
      00FF47B4H   LINE      CODE     ---       #397
      ---         BLOCKEND  ---      ---       LVL=0

      ---         MODULE    ---      ---       SEEKFREE_VIRSCO
      00000818H   PUBLIC    EDATA    ---       virtual_scope_data
      00000653H   PUBLIC    EDATA    BYTE      ?data_conversion?BYTE
      000000D0H   SFRSYM    DATA     BYTE      PSW
      0000009DH   SFRSYM    DATA     BYTE      IRCBAND
      00000097H   SFRSYM    DATA     BYTE      AUXR2
      000000EFH   SFRSYM    DATA     BYTE      AUXINTIF
      000000FDH   SFRSYM    DATA     BYTE      S4CON
      000000ACH   SFRSYM    DATA     BYTE      S3CON
      0000009AH   SFRSYM    DATA     BYTE      S2CON
      000000B7H   SFRSYM    DATA     BYTE      IPH
      000000CDH   SFRSYM    DATA     BYTE      SPSTAT
      000000DDH   SFRSYM    DATA     BYTE      T4T3M
      000000C1H   SFRSYM    DATA     BYTE      WDT_CONTR
      000000DFH   SFRSYM    DATA     BYTE      IP3
      000000F4H   SFRSYM    DATA     BYTE      USBCON
      000000B5H   SFRSYM    DATA     BYTE      IP2
      000000FFH   SFRSYM    DATA     BYTE      RSTCFG
      000000F9H   SFRSYM    DATA     BYTE      LINICR
      0000008EH   SFRSYM    DATA     BYTE      AUXR
      000000AFH   SFRSYM    DATA     BYTE      IE2
      00000088H   SFRSYM    DATA     BYTE      TCON
      00000098H   SFRSYM    DATA     BYTE      SCON
      000000F1H   SFRSYM    DATA     BYTE      CANICR
      00000087H   SFRSYM    DATA     BYTE      PCON
      000000BCH   SFRSYM    DATA     BYTE      ADC_CONTR
      000000E7H   SFRSYM    DATA     BYTE      CMPCR2
      000000E6H   SFRSYM    DATA     BYTE      CMPCR1
      000000B8H   SFRSYM    DATA     BYTE      IP
      0000008FH   SFRSYM    DATA     BYTE      INTCLKO
      000000EEH   SFRSYM    DATA     BYTE      IP3H
      000000B6H   SFRSYM    DATA     BYTE      IP2H
      000000A8H   SFRSYM    DATA     BYTE      IE
      000000BBH   SFRSYM    DATA     BYTE      P_SW3
      000000BAH   SFRSYM    DATA     BYTE      P_SW2
      000000A2H   SFRSYM    DATA     BYTE      P_SW1
      000000CEH   SFRSYM    DATA     BYTE      SPCTL
      000000F8H   SFRSYM    DATA     BYTE      P7
      000000E8H   SFRSYM    DATA     BYTE      P6
      000000C8H   SFRSYM    DATA     BYTE      P5
      000000C0H   SFRSYM    DATA     BYTE      P4
      000000B0H   SFRSYM    DATA     BYTE      P3
      000000A0H   SFRSYM    DATA     BYTE      P2
      00000090H   SFRSYM    DATA     BYTE      P1
      00000080H   SFRSYM    DATA     BYTE      P0
      00000906H   SYMBOL    EDATA    ---       Buf
      0000090AH   SYMBOL    EDATA    BYTE      CRC_CNT
      0000090BH   SYMBOL    EDATA    WORD      CRC_Temp
      0000090DH   SYMBOL    EDATA    BYTE      i
      0000090EH   SYMBOL    EDATA    BYTE      j
      00000653H   SYMBOL    EDATA    INT       data1
L251 LINKER/LOCATER V4.66.93.0                                                        07/19/2023  21:09:12  PAGE 83


      00000655H   SYMBOL    EDATA    INT       data2
      00000657H   SYMBOL    EDATA    INT       data3
      00000659H   SYMBOL    EDATA    INT       data4
      0000065BH   SYMBOL    EDATA    ---       dat
      0000065FH   SYMBOL    EDATA    WORD      CRC16

      ---         MODULE    ---      ---       SEEKFREE_WIRELESS
      00FF0066H   PUBLIC    CODE     ---       wireless_uart_callback
      000000D0H   SFRSYM    DATA     BYTE      PSW
      0000009DH   SFRSYM    DATA     BYTE      IRCBAND
      00000097H   SFRSYM    DATA     BYTE      AUXR2
      000000EFH   SFRSYM    DATA     BYTE      AUXINTIF
      000000FDH   SFRSYM    DATA     BYTE      S4CON
      000000ACH   SFRSYM    DATA     BYTE      S3CON
      0000009AH   SFRSYM    DATA     BYTE      S2CON
      000000FEH   SFRSYM    DATA     BYTE      S4BUF
      000000B7H   SFRSYM    DATA     BYTE      IPH
      000000CDH   SFRSYM    DATA     BYTE      SPSTAT
      000000DDH   SFRSYM    DATA     BYTE      T4T3M
      000000C1H   SFRSYM    DATA     BYTE      WDT_CONTR
      000000DFH   SFRSYM    DATA     BYTE      IP3
      000000F4H   SFRSYM    DATA     BYTE      USBCON
      000000B5H   SFRSYM    DATA     BYTE      IP2
      000000FFH   SFRSYM    DATA     BYTE      RSTCFG
      000000F9H   SFRSYM    DATA     BYTE      LINICR
      0000008EH   SFRSYM    DATA     BYTE      AUXR
      000000AFH   SFRSYM    DATA     BYTE      IE2
      00000080H.7 SFRSYM    DATA     BIT       P07
      00000088H   SFRSYM    DATA     BYTE      TCON
      00000098H   SFRSYM    DATA     BYTE      SCON
      000000F1H   SFRSYM    DATA     BYTE      CANICR
      00000087H   SFRSYM    DATA     BYTE      PCON
      000000BCH   SFRSYM    DATA     BYTE      ADC_CONTR
      000000E7H   SFRSYM    DATA     BYTE      CMPCR2
      000000E6H   SFRSYM    DATA     BYTE      CMPCR1
      000000B8H   SFRSYM    DATA     BYTE      IP
      0000008FH   SFRSYM    DATA     BYTE      INTCLKO
      000000EEH   SFRSYM    DATA     BYTE      IP3H
      000000B6H   SFRSYM    DATA     BYTE      IP2H
      000000A8H   SFRSYM    DATA     BYTE      IE
      000000BBH   SFRSYM    DATA     BYTE      P_SW3
      000000BAH   SFRSYM    DATA     BYTE      P_SW2
      000000A2H   SFRSYM    DATA     BYTE      P_SW1
      000000CEH   SFRSYM    DATA     BYTE      SPCTL
      000000F8H   SFRSYM    DATA     BYTE      P7
      000000E8H   SFRSYM    DATA     BYTE      P6
      000000C8H   SFRSYM    DATA     BYTE      P5
      000000C0H   SFRSYM    DATA     BYTE      P4
      000000B0H   SFRSYM    DATA     BYTE      P3
      000000A0H   SFRSYM    DATA     BYTE      P2
      00000090H   SFRSYM    DATA     BYTE      P1
      00000080H   SFRSYM    DATA     BYTE      P0
      00000199H   SYMBOL    EDATA    BYTE      wireless_uart_data
      0000019AH   SYMBOL    EDATA    ---       wireless_uart_fifo
      000001AEH   SYMBOL    EDATA    ---       wireless_uart_buffer

      00FF0066H   BLOCK     CODE     ---       LVL=0
      00FF0066H   LINE      CODE     ---       #48
      00FF0066H   LINE      CODE     ---       #51
      00FF006CH   LINE      CODE     ---       #52
      00FF007FH   LINE      CODE     ---       #53
      ---         BLOCKEND  ---      ---       LVL=0
      00000AB7H   SYMBOL    EDATA    ---       buff
      00000ABBH   SYMBOL    EDATA    WORD      len
      00000748H   SYMBOL    EDATA    ---       buff
L251 LINKER/LOCATER V4.66.93.0                                                        07/19/2023  21:09:12  PAGE 84


      0000074CH   SYMBOL    EDATA    DWORD     len
      00000750H   SYMBOL    EDATA    DWORD     data_len

      ---         MODULE    ---      ---       SEEKFREE_WIRELESS_CH573
      00FF8153H   PUBLIC    CODE     ---       wireless_ch573_callback
      000000D0H   SFRSYM    DATA     BYTE      PSW
      0000009DH   SFRSYM    DATA     BYTE      IRCBAND
      00000097H   SFRSYM    DATA     BYTE      AUXR2
      000000EFH   SFRSYM    DATA     BYTE      AUXINTIF
      000000FDH   SFRSYM    DATA     BYTE      S4CON
      000000ACH   SFRSYM    DATA     BYTE      S3CON
      0000009AH   SFRSYM    DATA     BYTE      S2CON
      000000FEH   SFRSYM    DATA     BYTE      S4BUF
      000000B7H   SFRSYM    DATA     BYTE      IPH
      000000CDH   SFRSYM    DATA     BYTE      SPSTAT
      000000DDH   SFRSYM    DATA     BYTE      T4T3M
      000000C1H   SFRSYM    DATA     BYTE      WDT_CONTR
      000000DFH   SFRSYM    DATA     BYTE      IP3
      000000F4H   SFRSYM    DATA     BYTE      USBCON
      000000B5H   SFRSYM    DATA     BYTE      IP2
      000000FFH   SFRSYM    DATA     BYTE      RSTCFG
      000000F9H   SFRSYM    DATA     BYTE      LINICR
      0000008EH   SFRSYM    DATA     BYTE      AUXR
      000000AFH   SFRSYM    DATA     BYTE      IE2
      00000080H.7 SFRSYM    DATA     BIT       P07
      00000088H   SFRSYM    DATA     BYTE      TCON
      00000098H   SFRSYM    DATA     BYTE      SCON
      000000F1H   SFRSYM    DATA     BYTE      CANICR
      00000087H   SFRSYM    DATA     BYTE      PCON
      000000BCH   SFRSYM    DATA     BYTE      ADC_CONTR
      000000E7H   SFRSYM    DATA     BYTE      CMPCR2
      000000E6H   SFRSYM    DATA     BYTE      CMPCR1
      000000B8H   SFRSYM    DATA     BYTE      IP
      0000008FH   SFRSYM    DATA     BYTE      INTCLKO
      000000EEH   SFRSYM    DATA     BYTE      IP3H
      000000B6H   SFRSYM    DATA     BYTE      IP2H
      000000A8H   SFRSYM    DATA     BYTE      IE
      000000BBH   SFRSYM    DATA     BYTE      P_SW3
      000000BAH   SFRSYM    DATA     BYTE      P_SW2
      000000A2H   SFRSYM    DATA     BYTE      P_SW1
      000000CEH   SFRSYM    DATA     BYTE      SPCTL
      000000F8H   SFRSYM    DATA     BYTE      P7
      000000E8H   SFRSYM    DATA     BYTE      P6
      000000C8H   SFRSYM    DATA     BYTE      P5
      000000C0H   SFRSYM    DATA     BYTE      P4
      000000B0H   SFRSYM    DATA     BYTE      P3
      000000A0H   SFRSYM    DATA     BYTE      P2
      00000090H   SFRSYM    DATA     BYTE      P1
      00000080H   SFRSYM    DATA     BYTE      P0
      000001EEH   SYMBOL    EDATA    ---       wireless_ch573_buffer
      0000022EH   SYMBOL    EDATA    BYTE      wireless_ch573_data
      0000022FH   SYMBOL    EDATA    ---       wireless_ch573_fifo

      00FF8153H   BLOCK     CODE     ---       LVL=0
      00FF8153H   LINE      CODE     ---       #47
      00FF8153H   LINE      CODE     ---       #50
      00FF8159H   LINE      CODE     ---       #51
      00FF816CH   LINE      CODE     ---       #52
      ---         BLOCKEND  ---      ---       LVL=0
      00000ABDH   SYMBOL    EDATA    ---       buff
      00000AC1H   SYMBOL    EDATA    WORD      len
      00000754H   SYMBOL    EDATA    ---       buff
      00000758H   SYMBOL    EDATA    DWORD     len
      0000075CH   SYMBOL    EDATA    DWORD     data_len

L251 LINKER/LOCATER V4.66.93.0                                                        07/19/2023  21:09:12  PAGE 85


      ---         MODULE    ---      ---       SEEKFREE_IPS200_SPI
      00FF6D7BH   PUBLIC    CODE     ---       ips200_showuint8
      00FF7F65H   PUBLIC    CODE     ---       ips200_writedata_16bit
      00FF5FC2H   PUBLIC    CODE     ---       ips200_showfloat
      00FF6B53H   PUBLIC    CODE     ---       ips200_showchar
      00FF65A5H   PUBLIC    CODE     ---       ips200_showint16
      00FF7713H   PUBLIC    CODE     ---       ips200_clear
      00FF77CFH   PUBLIC    CODE     ---       ips200_showstr
      00FF81ADH   PUBLIC    CODE     ---       ips200_writeIndex
      00FF81C2H   PUBLIC    CODE     ---       ips200_writeData
      00FF7E32H   PUBLIC    CODE     ---       ips200_set_region
      00FF5B8CH   PUBLIC    CODE     ---       ips200_init
      00000363H   PUBLIC    EDATA    BYTE      ?ips200_showfloat_simspi?BYTE
      00000393H   PUBLIC    EDATA    BYTE      ?ips200_showfloat?BYTE
      000000D0H   SFRSYM    DATA     BYTE      PSW
      0000009DH   SFRSYM    DATA     BYTE      IRCBAND
      00000097H   SFRSYM    DATA     BYTE      AUXR2
      000000EFH   SFRSYM    DATA     BYTE      AUXINTIF
      000000FDH   SFRSYM    DATA     BYTE      S4CON
      000000ACH   SFRSYM    DATA     BYTE      S3CON
      0000009AH   SFRSYM    DATA     BYTE      S2CON
      000000B7H   SFRSYM    DATA     BYTE      IPH
      000000CDH   SFRSYM    DATA     BYTE      SPSTAT
      000000DDH   SFRSYM    DATA     BYTE      T4T3M
      000000C1H   SFRSYM    DATA     BYTE      WDT_CONTR
      000000DFH   SFRSYM    DATA     BYTE      IP3
      000000F4H   SFRSYM    DATA     BYTE      USBCON
      000000B5H   SFRSYM    DATA     BYTE      IP2
      000000FFH   SFRSYM    DATA     BYTE      RSTCFG
      000000F9H   SFRSYM    DATA     BYTE      LINICR
      0000008EH   SFRSYM    DATA     BYTE      AUXR
      000000AFH   SFRSYM    DATA     BYTE      IE2
      000000A0H.7 SFRSYM    DATA     BIT       P27
      000000A0H.5 SFRSYM    DATA     BIT       P25
      00000088H   SFRSYM    DATA     BYTE      TCON
      000000A0H.3 SFRSYM    DATA     BIT       P23
      00000098H   SFRSYM    DATA     BYTE      SCON
      000000A0H.2 SFRSYM    DATA     BIT       P22
      000000A0H.1 SFRSYM    DATA     BIT       P21
      000000A0H.0 SFRSYM    DATA     BIT       P20
      000000F1H   SFRSYM    DATA     BYTE      CANICR
      00000087H   SFRSYM    DATA     BYTE      PCON
      000000BCH   SFRSYM    DATA     BYTE      ADC_CONTR
      000000E7H   SFRSYM    DATA     BYTE      CMPCR2
      000000E6H   SFRSYM    DATA     BYTE      CMPCR1
      000000B8H   SFRSYM    DATA     BYTE      IP
      0000008FH   SFRSYM    DATA     BYTE      INTCLKO
      000000EEH   SFRSYM    DATA     BYTE      IP3H
      000000B6H   SFRSYM    DATA     BYTE      IP2H
      000000A8H   SFRSYM    DATA     BYTE      IE
      000000BBH   SFRSYM    DATA     BYTE      P_SW3
      000000BAH   SFRSYM    DATA     BYTE      P_SW2
      000000A2H   SFRSYM    DATA     BYTE      P_SW1
      000000CEH   SFRSYM    DATA     BYTE      SPCTL
      000000F8H   SFRSYM    DATA     BYTE      P7
      000000E8H   SFRSYM    DATA     BYTE      P6
      000000C8H   SFRSYM    DATA     BYTE      P5
      000000C0H   SFRSYM    DATA     BYTE      P4
      000000B0H   SFRSYM    DATA     BYTE      P3
      000000A0H   SFRSYM    DATA     BYTE      P2
      00000090H   SFRSYM    DATA     BYTE      P1
      00000080H   SFRSYM    DATA     BYTE      P0
      00000BD3H   SYMBOL    EDATA    BYTE      dat
      00000BD4H   SYMBOL    EDATA    BYTE      i
      00000BD5H   SYMBOL    EDATA    BYTE      dat
L251 LINKER/LOCATER V4.66.93.0                                                        07/19/2023  21:09:12  PAGE 86


      00000BD6H   SYMBOL    EDATA    BYTE      i
      00000B8EH   SYMBOL    EDATA    WORD      dat
      00000B90H   SYMBOL    EDATA    BYTE      i
      000009C6H   SYMBOL    EDATA    WORD      x1
      000009C8H   SYMBOL    EDATA    WORD      y1
      000009CAH   SYMBOL    EDATA    WORD      x2
      000009CCH   SYMBOL    EDATA    WORD      y2
      00000AC3H   SYMBOL    EDATA    WORD      color
      00000AC5H   SYMBOL    EDATA    WORD      i
      00000AC7H   SYMBOL    EDATA    WORD      j
      00000AC9H   SYMBOL    EDATA    WORD      x
      00000ACBH   SYMBOL    EDATA    WORD      y
      00000ACDH   SYMBOL    EDATA    WORD      color
      000009CEH   SYMBOL    EDATA    WORD      x
      000009D0H   SYMBOL    EDATA    WORD      y
      000009D2H   SYMBOL    EDATA    CHAR      dat
      000009D3H   SYMBOL    EDATA    BYTE      i
      000009D4H   SYMBOL    EDATA    BYTE      j
      000009D5H   SYMBOL    EDATA    BYTE      temp
      00000822H   SYMBOL    EDATA    WORD      x
      00000824H   SYMBOL    EDATA    WORD      y
      00000826H   SYMBOL    EDATA    ---       dat
      0000082AH   SYMBOL    EDATA    WORD      j
      0000090FH   SYMBOL    EDATA    WORD      x
      00000911H   SYMBOL    EDATA    WORD      y
      00000913H   SYMBOL    EDATA    CHAR      dat
      00000914H   SYMBOL    EDATA    ---       a
      00000917H   SYMBOL    EDATA    BYTE      i
      00000918H   SYMBOL    EDATA    WORD      x
      0000091AH   SYMBOL    EDATA    WORD      y
      0000091CH   SYMBOL    EDATA    BYTE      dat
      0000091DH   SYMBOL    EDATA    ---       a
      00000920H   SYMBOL    EDATA    BYTE      i
      00000760H   SYMBOL    EDATA    WORD      x
      00000762H   SYMBOL    EDATA    WORD      y
      00000764H   SYMBOL    EDATA    INT       dat
      00000766H   SYMBOL    EDATA    ---       a
      0000076BH   SYMBOL    EDATA    BYTE      i
      0000076CH   SYMBOL    EDATA    WORD      x
      0000076EH   SYMBOL    EDATA    WORD      y
      00000770H   SYMBOL    EDATA    WORD      dat
      00000772H   SYMBOL    EDATA    ---       a
      00000777H   SYMBOL    EDATA    BYTE      i
      000004FAH   SYMBOL    EDATA    WORD      x
      000004FCH   SYMBOL    EDATA    WORD      y
      000004FEH   SYMBOL    EDATA    LONG      dat
      00000502H   SYMBOL    EDATA    BYTE      num
      00000503H   SYMBOL    EDATA    ---       buff
      00000525H   SYMBOL    EDATA    BYTE      length
      00000363H   SYMBOL    EDATA    WORD      x
      00000365H   SYMBOL    EDATA    WORD      y
      00000367H   SYMBOL    EDATA    FLOAT     dat
      0000036BH   SYMBOL    EDATA    BYTE      num
      0000036CH   SYMBOL    EDATA    BYTE      pointnum
      0000036DH   SYMBOL    EDATA    BYTE      length
      0000036EH   SYMBOL    EDATA    ---       buff
      00000390H   SYMBOL    EDATA    CHAR      start
      00000391H   SYMBOL    EDATA    CHAR      end
      00000392H   SYMBOL    EDATA    CHAR      point

      00FF81ADH   BLOCK     CODE     ---       LVL=0
      00000BEBH   SYMBOL    EDATA    BYTE      dat
      00FF81ADH   LINE      CODE     ---       #594
      00FF81B1H   LINE      CODE     ---       #596
      00FF81B4H   LINE      CODE     ---       #597
L251 LINKER/LOCATER V4.66.93.0                                                        07/19/2023  21:09:12  PAGE 87


      00FF81B7H   LINE      CODE     ---       #599
      00FF81BEH   LINE      CODE     ---       #600
      00FF81C1H   LINE      CODE     ---       #601
      ---         BLOCKEND  ---      ---       LVL=0

      00FF81C2H   BLOCK     CODE     ---       LVL=0
      00000BECH   SYMBOL    EDATA    BYTE      dat
      00FF81C2H   LINE      CODE     ---       #610
      00FF81C6H   LINE      CODE     ---       #612
      00FF81C9H   LINE      CODE     ---       #613
      00FF81CCH   LINE      CODE     ---       #615
      00FF81D3H   LINE      CODE     ---       #616
      00FF81D6H   LINE      CODE     ---       #617
      ---         BLOCKEND  ---      ---       LVL=0

      00FF7F65H   BLOCK     CODE     ---       LVL=0
      00000B44H   SYMBOL    EDATA    WORD      dat
      00FF7F69H   BLOCK     CODE     NEAR LAB  LVL=1
      00000B46H   SYMBOL    EDATA    ---       dat1
      ---         BLOCKEND  ---      ---       LVL=1
      00FF7F65H   LINE      CODE     ---       #626
      00FF7F69H   LINE      CODE     ---       #627
      00FF7F69H   LINE      CODE     ---       #629
      00FF7F6FH   LINE      CODE     ---       #630
      00FF7F77H   LINE      CODE     ---       #631
      00FF7F7AH   LINE      CODE     ---       #632
      00FF7F7DH   LINE      CODE     ---       #633
      00FF7F84H   LINE      CODE     ---       #634
      00FF7F8BH   LINE      CODE     ---       #635
      00FF7F8EH   LINE      CODE     ---       #636
      ---         BLOCKEND  ---      ---       LVL=0

      00FF5B8CH   BLOCK     CODE     ---       LVL=0
      00FF5B8CH   LINE      CODE     ---       #644
      00FF5B8CH   LINE      CODE     ---       #646
      00FF5BACH   LINE      CODE     ---       #648
      00FF5BAFH   LINE      CODE     ---       #649
      00FF5BB2H   LINE      CODE     ---       #650
      00FF5BB5H   LINE      CODE     ---       #652
      00FF5BBCH   LINE      CODE     ---       #654
      00FF5BBFH   LINE      CODE     ---       #655
      00FF5BC6H   LINE      CODE     ---       #656
      00FF5BCBH   LINE      CODE     ---       #657
      00FF5BD2H   LINE      CODE     ---       #658
      00FF5BD7H   LINE      CODE     ---       #661
      00FF5BDBH   LINE      CODE     ---       #670
      00FF5BE0H   LINE      CODE     ---       #671
      00FF5BE5H   LINE      CODE     ---       #673
      00FF5BEAH   LINE      CODE     ---       #674
      00FF5BEFH   LINE      CODE     ---       #675
      00FF5BF4H   LINE      CODE     ---       #676
      00FF5BF8H   LINE      CODE     ---       #677
      00FF5BFDH   LINE      CODE     ---       #678
      00FF5C02H   LINE      CODE     ---       #680
      00FF5C07H   LINE      CODE     ---       #681
      00FF5C0CH   LINE      CODE     ---       #683
      00FF5C11H   LINE      CODE     ---       #684
      00FF5C16H   LINE      CODE     ---       #689
      00FF5C1BH   LINE      CODE     ---       #690
      00FF5C20H   LINE      CODE     ---       #692
      00FF5C25H   LINE      CODE     ---       #693
      00FF5C2AH   LINE      CODE     ---       #695
      00FF5C2FH   LINE      CODE     ---       #696
      00FF5C34H   LINE      CODE     ---       #698
      00FF5C39H   LINE      CODE     ---       #699
L251 LINKER/LOCATER V4.66.93.0                                                        07/19/2023  21:09:12  PAGE 88


      00FF5C3EH   LINE      CODE     ---       #701
      00FF5C43H   LINE      CODE     ---       #702
      00FF5C48H   LINE      CODE     ---       #704
      00FF5C4DH   LINE      CODE     ---       #705
      00FF5C52H   LINE      CODE     ---       #706
      00FF5C57H   LINE      CODE     ---       #708
      00FF5C5CH   LINE      CODE     ---       #709
      00FF5C61H   LINE      CODE     ---       #710
      00FF5C66H   LINE      CODE     ---       #711
      00FF5C6BH   LINE      CODE     ---       #712
      00FF5C70H   LINE      CODE     ---       #713
      00FF5C75H   LINE      CODE     ---       #714
      00FF5C7AH   LINE      CODE     ---       #715
      00FF5C7FH   LINE      CODE     ---       #716
      00FF5C84H   LINE      CODE     ---       #717
      00FF5C89H   LINE      CODE     ---       #718
      00FF5C8EH   LINE      CODE     ---       #719
      00FF5C93H   LINE      CODE     ---       #720
      00FF5C98H   LINE      CODE     ---       #721
      00FF5C9DH   LINE      CODE     ---       #722
      00FF5CA2H   LINE      CODE     ---       #724
      00FF5CA7H   LINE      CODE     ---       #725
      00FF5CACH   LINE      CODE     ---       #726
      00FF5CB1H   LINE      CODE     ---       #727
      00FF5CB6H   LINE      CODE     ---       #728
      00FF5CBBH   LINE      CODE     ---       #729
      00FF5CC0H   LINE      CODE     ---       #730
      00FF5CC5H   LINE      CODE     ---       #731
      00FF5CCAH   LINE      CODE     ---       #732
      00FF5CCFH   LINE      CODE     ---       #733
      00FF5CD4H   LINE      CODE     ---       #734
      00FF5CD9H   LINE      CODE     ---       #735
      00FF5CDEH   LINE      CODE     ---       #736
      00FF5CE3H   LINE      CODE     ---       #737
      00FF5CE8H   LINE      CODE     ---       #738
      00FF5CEDH   LINE      CODE     ---       #740
      00FF5CF2H   LINE      CODE     ---       #742
      00FF5CF7H   LINE      CODE     ---       #743
      00FF5CFEH   LINE      CODE     ---       #744
      ---         BLOCKEND  ---      ---       LVL=0

      00FF7E32H   BLOCK     CODE     ---       LVL=0
      000009D6H   SYMBOL    EDATA    WORD      x1
      000009D8H   SYMBOL    EDATA    WORD      y1
      000009DAH   SYMBOL    EDATA    WORD      x2
      000009DCH   SYMBOL    EDATA    WORD      y2
      00FF7E32H   LINE      CODE     ---       #748
      00FF7E42H   LINE      CODE     ---       #752
      00FF7E47H   LINE      CODE     ---       #753
      00FF7E4EH   LINE      CODE     ---       #754
      00FF7E55H   LINE      CODE     ---       #755
      00FF7E5AH   LINE      CODE     ---       #756
      00FF7E61H   LINE      CODE     ---       #757
      00FF7E68H   LINE      CODE     ---       #758
      00FF7E6DH   LINE      CODE     ---       #791
      ---         BLOCKEND  ---      ---       LVL=0

      00FF7713H   BLOCK     CODE     ---       LVL=0
      00000ACFH   SYMBOL    EDATA    WORD      color
      00FF7717H   BLOCK     CODE     NEAR LAB  LVL=1
      00000AD1H   SYMBOL    EDATA    WORD      i
      00000AD3H   SYMBOL    EDATA    WORD      j
      ---         BLOCKEND  ---      ---       LVL=1
      00FF7713H   LINE      CODE     ---       #800
      00FF7717H   LINE      CODE     ---       #801
L251 LINKER/LOCATER V4.66.93.0                                                        07/19/2023  21:09:12  PAGE 89


      00FF7717H   LINE      CODE     ---       #803
      00FF7726H   LINE      CODE     ---       #804
      00FF772EH   LINE      CODE     ---       #806
      00FF7736H   LINE      CODE     ---       #808
      00FF773DH   LINE      CODE     ---       #809
      00FF7757H   LINE      CODE     ---       #810
      00FF7771H   LINE      CODE     ---       #811
      ---         BLOCKEND  ---      ---       LVL=0
      00000AD5H   SYMBOL    EDATA    WORD      x
      00000AD7H   SYMBOL    EDATA    WORD      y
      00000AD9H   SYMBOL    EDATA    WORD      color

      00FF6B53H   BLOCK     CODE     ---       LVL=0
      000009DEH   SYMBOL    EDATA    WORD      x
      000009E0H   SYMBOL    EDATA    WORD      y
      000009E2H   SYMBOL    EDATA    CHAR      dat
      00FF6B5FH   BLOCK     CODE     NEAR LAB  LVL=1
      000009E3H   SYMBOL    EDATA    BYTE      i
      000009E4H   SYMBOL    EDATA    BYTE      j
      000009E5H   SYMBOL    EDATA    BYTE      temp
      ---         BLOCKEND  ---      ---       LVL=1
      00FF6B53H   LINE      CODE     ---       #839
      00FF6B5FH   LINE      CODE     ---       #840
      00FF6B5FH   LINE      CODE     ---       #844
      00FF6B67H   LINE      CODE     ---       #846
      00FF6B90H   LINE      CODE     ---       #847
      00FF6BB8H   LINE      CODE     ---       #848
      00FF6BBFH   LINE      CODE     ---       #850
      00FF6BC6H   LINE      CODE     ---       #852
      00FF6BCDH   LINE      CODE     ---       #853
      00FF6BCFH   LINE      CODE     ---       #854
      00FF6BD6H   LINE      CODE     ---       #855
      00FF6BE0H   LINE      CODE     ---       #856
      00FF6BF7H   LINE      CODE     ---       #857
      00FF6C11H   LINE      CODE     ---       #858
      ---         BLOCKEND  ---      ---       LVL=0

      00FF77CFH   BLOCK     CODE     ---       LVL=0
      0000082CH   SYMBOL    EDATA    WORD      x
      0000082EH   SYMBOL    EDATA    WORD      y
      00000830H   SYMBOL    EDATA    ---       dat
      00FF77DBH   BLOCK     CODE     NEAR LAB  LVL=1
      00000834H   SYMBOL    EDATA    WORD      j
      ---         BLOCKEND  ---      ---       LVL=1
      00FF77CFH   LINE      CODE     ---       #869
      00FF77DBH   LINE      CODE     ---       #870
      00FF77DBH   LINE      CODE     ---       #873
      00FF77E1H   LINE      CODE     ---       #874
      00FF77E3H   LINE      CODE     ---       #876
      00FF780DH   LINE      CODE     ---       #877
      00FF781BH   LINE      CODE     ---       #878
      00FF782BH   LINE      CODE     ---       #879
      ---         BLOCKEND  ---      ---       LVL=0
      00000921H   SYMBOL    EDATA    WORD      x
      00000923H   SYMBOL    EDATA    WORD      y
      00000925H   SYMBOL    EDATA    CHAR      dat
      00000926H   SYMBOL    EDATA    ---       a
      00000929H   SYMBOL    EDATA    BYTE      i

      00FF6D7BH   BLOCK     CODE     ---       LVL=0
      0000092AH   SYMBOL    EDATA    WORD      x
      0000092CH   SYMBOL    EDATA    WORD      y
      0000092EH   SYMBOL    EDATA    BYTE      dat
      00FF6D87H   BLOCK     CODE     NEAR LAB  LVL=1
      0000092FH   SYMBOL    EDATA    ---       a
L251 LINKER/LOCATER V4.66.93.0                                                        07/19/2023  21:09:12  PAGE 90


      00000932H   SYMBOL    EDATA    BYTE      i
      ---         BLOCKEND  ---      ---       LVL=1
      00FF6D7BH   LINE      CODE     ---       #921
      00FF6D87H   LINE      CODE     ---       #922
      00FF6D87H   LINE      CODE     ---       #926
      00FF6D97H   LINE      CODE     ---       #927
      00FF6DB0H   LINE      CODE     ---       #928
      00FF6DC3H   LINE      CODE     ---       #929
      00FF6DC8H   LINE      CODE     ---       #930
      00FF6DCAH   LINE      CODE     ---       #932
      00FF6E08H   LINE      CODE     ---       #933
      00FF6E15H   LINE      CODE     ---       #934
      00FF6E1FH   LINE      CODE     ---       #936
      ---         BLOCKEND  ---      ---       LVL=0

      00FF65A5H   BLOCK     CODE     ---       LVL=0
      00000778H   SYMBOL    EDATA    WORD      x
      0000077AH   SYMBOL    EDATA    WORD      y
      0000077CH   SYMBOL    EDATA    INT       dat
      00FF65B1H   BLOCK     CODE     NEAR LAB  LVL=1
      0000077EH   SYMBOL    EDATA    ---       a
      00000783H   SYMBOL    EDATA    BYTE      i
      ---         BLOCKEND  ---      ---       LVL=1
      00FF65A5H   LINE      CODE     ---       #947
      00FF65B1H   LINE      CODE     ---       #948
      00FF65B1H   LINE      CODE     ---       #951
      00FF65BBH   LINE      CODE     ---       #953
      00FF65D0H   LINE      CODE     ---       #954
      00FF65DEH   LINE      CODE     ---       #955
      00FF65E0H   LINE      CODE     ---       #956
      00FF65F5H   LINE      CODE     ---       #958
      00FF6604H   LINE      CODE     ---       #959
      00FF661CH   LINE      CODE     ---       #960
      00FF6634H   LINE      CODE     ---       #961
      00FF664CH   LINE      CODE     ---       #962
      00FF665DH   LINE      CODE     ---       #964
      00FF6662H   LINE      CODE     ---       #965
      00FF6664H   LINE      CODE     ---       #967
      00FF66A2H   LINE      CODE     ---       #968
      00FF66AFH   LINE      CODE     ---       #969
      00FF66B9H   LINE      CODE     ---       #970
      ---         BLOCKEND  ---      ---       LVL=0
      00000784H   SYMBOL    EDATA    WORD      x
      00000786H   SYMBOL    EDATA    WORD      y
      00000788H   SYMBOL    EDATA    WORD      dat
      0000078AH   SYMBOL    EDATA    ---       a
      0000078FH   SYMBOL    EDATA    BYTE      i
      00000526H   SYMBOL    EDATA    WORD      x
      00000528H   SYMBOL    EDATA    WORD      y
      0000052AH   SYMBOL    EDATA    LONG      dat
      0000052EH   SYMBOL    EDATA    BYTE      num
      0000052FH   SYMBOL    EDATA    ---       buff
      00000551H   SYMBOL    EDATA    BYTE      length

      00FF5FC2H   BLOCK     CODE     ---       LVL=0
      00000393H   SYMBOL    EDATA    WORD      x
      00000395H   SYMBOL    EDATA    WORD      y
      00000397H   SYMBOL    EDATA    FLOAT     dat
      0000039BH   SYMBOL    EDATA    BYTE      num
      0000039CH   SYMBOL    EDATA    BYTE      pointnum
      00FF5FD2H   BLOCK     CODE     NEAR LAB  LVL=1
      0000039DH   SYMBOL    EDATA    BYTE      length
      0000039EH   SYMBOL    EDATA    ---       buff
      000003C0H   SYMBOL    EDATA    CHAR      start
      000003C1H   SYMBOL    EDATA    CHAR      end
L251 LINKER/LOCATER V4.66.93.0                                                        07/19/2023  21:09:12  PAGE 91


      000003C2H   SYMBOL    EDATA    CHAR      point
      ---         BLOCKEND  ---      ---       LVL=1
      00FF5FC2H   LINE      CODE     ---       #1052
      00FF5FD2H   LINE      CODE     ---       #1053
      00FF5FD2H   LINE      CODE     ---       #1058
      00FF5FE2H   LINE      CODE     ---       #1059
      00FF5FF2H   LINE      CODE     ---       #1061
      00FF601AH   LINE      CODE     ---       #1064
      00FF6035H   LINE      CODE     ---       #1065
      00FF6042H   LINE      CODE     ---       #1066
      00FF6042H   LINE      CODE     ---       #1067
      00FF6052H   LINE      CODE     ---       #1068
      00FF606AH   LINE      CODE     ---       #1069
      00FF6082H   LINE      CODE     ---       #1070
      00FF6084H   LINE      CODE     ---       #1072
      00FF6095H   LINE      CODE     ---       #1073
      00FF60A2H   LINE      CODE     ---       #1074
      00FF60AFH   LINE      CODE     ---       #1075
      00FF60B8H   LINE      CODE     ---       #1077
      00FF60D6H   LINE      CODE     ---       #1078
      00FF60E7H   LINE      CODE     ---       #1080
      00FF60F7H   LINE      CODE     ---       #1082
      00FF6106H   LINE      CODE     ---       #1083
      ---         BLOCKEND  ---      ---       LVL=0

      ---         MODULE    ---      ---       isr
      00FF7CA6H   PUBLIC    CODE     ---       UART1_Isr
      00FF8117H   PUBLIC    CODE     ---       UART2_Isr
      00FF8135H   PUBLIC    CODE     ---       UART3_Isr
      00FF7351H   PUBLIC    CODE     ---       UART4_Isr
      00FF000AH   PUBLIC    CODE     ---       INT0_Isr
      00FF822BH   PUBLIC    CODE     ---       INT1_Isr
      00FF8233H   PUBLIC    CODE     ---       INT2_Isr
      00FF823BH   PUBLIC    CODE     ---       INT3_Isr
      00FF8243H   PUBLIC    CODE     ---       INT4_Isr
      00FF824BH   PUBLIC    CODE     ---       TM0_Isr
      00FF0012H   PUBLIC    CODE     ---       TM1_Isr
      00FF76B1H   PUBLIC    CODE     ---       TM2_Isr
      00FF8253H   PUBLIC    CODE     ---       TM3_Isr
      00FF825BH   PUBLIC    CODE     ---       TM4_Isr
      00000A20H   PUBLIC    EDATA    WORD      time0_t
      00000A22H   PUBLIC    EDATA    INT       EncodeNowL
      00000A24H   PUBLIC    EDATA    INT       EncodeNowR
      000000D0H   SFRSYM    DATA     BYTE      PSW
      0000009DH   SFRSYM    DATA     BYTE      IRCBAND
      00000097H   SFRSYM    DATA     BYTE      AUXR2
      000000EFH   SFRSYM    DATA     BYTE      AUXINTIF
      000000FDH   SFRSYM    DATA     BYTE      S4CON
      000000ACH   SFRSYM    DATA     BYTE      S3CON
      0000009AH   SFRSYM    DATA     BYTE      S2CON
      000000B7H   SFRSYM    DATA     BYTE      IPH
      000000CDH   SFRSYM    DATA     BYTE      SPSTAT
      000000DDH   SFRSYM    DATA     BYTE      T4T3M
      000000C1H   SFRSYM    DATA     BYTE      WDT_CONTR
      000000DFH   SFRSYM    DATA     BYTE      IP3
      000000F4H   SFRSYM    DATA     BYTE      USBCON
      000000B5H   SFRSYM    DATA     BYTE      IP2
      000000FFH   SFRSYM    DATA     BYTE      RSTCFG
      000000C7H   SFRSYM    DATA     BYTE      IAP_CONTR
      000000F9H   SFRSYM    DATA     BYTE      LINICR
      0000008EH   SFRSYM    DATA     BYTE      AUXR
      000000AFH   SFRSYM    DATA     BYTE      IE2
      000000C8H.2 SFRSYM    DATA     BIT       P52
      00000088H   SFRSYM    DATA     BYTE      TCON
      00000098H   SFRSYM    DATA     BYTE      SCON
L251 LINKER/LOCATER V4.66.93.0                                                        07/19/2023  21:09:12  PAGE 92


      000000F1H   SFRSYM    DATA     BYTE      CANICR
      00000087H   SFRSYM    DATA     BYTE      PCON
      00000099H   SFRSYM    DATA     BYTE      SBUF
      000000BCH   SFRSYM    DATA     BYTE      ADC_CONTR
      000000E7H   SFRSYM    DATA     BYTE      CMPCR2
      000000E6H   SFRSYM    DATA     BYTE      CMPCR1
      000000B8H   SFRSYM    DATA     BYTE      IP
      0000008FH   SFRSYM    DATA     BYTE      INTCLKO
      000000EEH   SFRSYM    DATA     BYTE      IP3H
      000000B6H   SFRSYM    DATA     BYTE      IP2H
      000000A8H   SFRSYM    DATA     BYTE      IE
      000000BBH   SFRSYM    DATA     BYTE      P_SW3
      000000BAH   SFRSYM    DATA     BYTE      P_SW2
      000000A2H   SFRSYM    DATA     BYTE      P_SW1
      000000CEH   SFRSYM    DATA     BYTE      SPCTL
      000000F8H   SFRSYM    DATA     BYTE      P7
      000000E8H   SFRSYM    DATA     BYTE      P6
      000000C8H   SFRSYM    DATA     BYTE      P5
      000000C0H   SFRSYM    DATA     BYTE      P4
      000000B0H   SFRSYM    DATA     BYTE      P3
      000000A0H   SFRSYM    DATA     BYTE      P2
      00000090H   SFRSYM    DATA     BYTE      P1
      00000080H   SFRSYM    DATA     BYTE      P0

      00FF7CA6H   BLOCK     CODE     ---       LVL=0
      00FF7CAAH   BLOCK     CODE     NEAR LAB  LVL=1
      00000BEDH   SYMBOL    EDATA    BYTE      res
      00000A26H   SYMBOL    EDATA    BYTE      dwon_count
      ---         BLOCKEND  ---      ---       LVL=1
      00FF7CA6H   LINE      CODE     ---       #14
      00FF7CAAH   LINE      CODE     ---       #15
      00FF7CAAH   LINE      CODE     ---       #18
      00FF7CAFH   LINE      CODE     ---       #20
      00FF7CB2H   LINE      CODE     ---       #21
      00FF7CB7H   LINE      CODE     ---       #22
      00FF7CB7H   LINE      CODE     ---       #23
      00FF7CBCH   LINE      CODE     ---       #25
      00FF7CBFH   LINE      CODE     ---       #26
      00FF7CC5H   LINE      CODE     ---       #28
      00FF7CCAH   LINE      CODE     ---       #30
      00FF7CDCH   LINE      CODE     ---       #31
      00FF7CE0H   LINE      CODE     ---       #32
      00FF7CE2H   LINE      CODE     ---       #35
      00FF7CE7H   LINE      CODE     ---       #36
      00FF7CE7H   LINE      CODE     ---       #37
      ---         BLOCKEND  ---      ---       LVL=0

      00FF8117H   BLOCK     CODE     ---       LVL=0
      00FF8117H   LINE      CODE     ---       #41
      00FF811BH   LINE      CODE     ---       #43
      00FF8120H   LINE      CODE     ---       #45
      00FF8123H   LINE      CODE     ---       #46
      00FF8128H   LINE      CODE     ---       #47
      00FF8128H   LINE      CODE     ---       #48
      00FF812DH   LINE      CODE     ---       #50
      00FF8130H   LINE      CODE     ---       #53
      ---         BLOCKEND  ---      ---       LVL=0

      00FF8135H   BLOCK     CODE     ---       LVL=0
      00FF8135H   LINE      CODE     ---       #58
      00FF8139H   LINE      CODE     ---       #60
      00FF813EH   LINE      CODE     ---       #62
      00FF8141H   LINE      CODE     ---       #63
      00FF8146H   LINE      CODE     ---       #64
      00FF8146H   LINE      CODE     ---       #65
L251 LINKER/LOCATER V4.66.93.0                                                        07/19/2023  21:09:12  PAGE 93


      00FF814BH   LINE      CODE     ---       #67
      00FF814EH   LINE      CODE     ---       #70
      ---         BLOCKEND  ---      ---       LVL=0

      00FF7351H   BLOCK     CODE     ---       LVL=0
      00FF7351H   LINE      CODE     ---       #75
      00FF7367H   LINE      CODE     ---       #77
      00FF736CH   LINE      CODE     ---       #79
      00FF736FH   LINE      CODE     ---       #80
      00FF7374H   LINE      CODE     ---       #81
      00FF7374H   LINE      CODE     ---       #82
      00FF7379H   LINE      CODE     ---       #84
      00FF737CH   LINE      CODE     ---       #87
      00FF7388H   LINE      CODE     ---       #89
      00FF738BH   LINE      CODE     ---       #90
      00FF738DH   LINE      CODE     ---       #91
      00FF7399H   LINE      CODE     ---       #93
      00FF739CH   LINE      CODE     ---       #94
      00FF739EH   LINE      CODE     ---       #95
      00FF73AAH   LINE      CODE     ---       #97
      00FF73ADH   LINE      CODE     ---       #98
      00FF73ADH   LINE      CODE     ---       #100
      ---         BLOCKEND  ---      ---       LVL=0

      00FF000AH   BLOCK     CODE     ---       LVL=0
      00FF000AH   LINE      CODE     ---       #103
      00FF000AH   LINE      CODE     ---       #106
      ---         BLOCKEND  ---      ---       LVL=0

      00FF822BH   BLOCK     CODE     ---       LVL=0
      00FF822BH   LINE      CODE     ---       #107
      00FF822DH   LINE      CODE     ---       #109
      00FF8230H   LINE      CODE     ---       #112
      ---         BLOCKEND  ---      ---       LVL=0

      00FF8233H   BLOCK     CODE     ---       LVL=0
      00FF8233H   LINE      CODE     ---       #113
      00FF8235H   LINE      CODE     ---       #115
      00FF8238H   LINE      CODE     ---       #116
      ---         BLOCKEND  ---      ---       LVL=0

      00FF823BH   BLOCK     CODE     ---       LVL=0
      00FF823BH   LINE      CODE     ---       #117
      00FF823DH   LINE      CODE     ---       #119
      00FF8240H   LINE      CODE     ---       #120
      ---         BLOCKEND  ---      ---       LVL=0

      00FF8243H   BLOCK     CODE     ---       LVL=0
      00FF8243H   LINE      CODE     ---       #122
      00FF8245H   LINE      CODE     ---       #125
      00FF8248H   LINE      CODE     ---       #126
      ---         BLOCKEND  ---      ---       LVL=0

      00FF824BH   BLOCK     CODE     ---       LVL=0
      00FF824BH   LINE      CODE     ---       #128
      00FF824DH   LINE      CODE     ---       #130
      00FF8250H   LINE      CODE     ---       #131
      ---         BLOCKEND  ---      ---       LVL=0

      00FF0012H   BLOCK     CODE     ---       LVL=0
      00FF0012H   LINE      CODE     ---       #132
      00FF0012H   LINE      CODE     ---       #135
      ---         BLOCKEND  ---      ---       LVL=0

      00FF76B1H   BLOCK     CODE     ---       LVL=0
L251 LINKER/LOCATER V4.66.93.0                                                        07/19/2023  21:09:12  PAGE 94


      00FF76B1H   LINE      CODE     ---       #152
      00FF76B9H   LINE      CODE     ---       #154
      00FF76BCH   LINE      CODE     ---       #155
      00FF76CAH   LINE      CODE     ---       #157
      00FF76DAH   LINE      CODE     ---       #162
      00FF76E0H   LINE      CODE     ---       #163
      00FF76E0H   LINE      CODE     ---       #164
      00FF76F2H   LINE      CODE     ---       #167
      00FF76F8H   LINE      CODE     ---       #168
      00FF76F8H   LINE      CODE     ---       #169
      00FF76F8H   LINE      CODE     ---       #172
      00FF76F8H   LINE      CODE     ---       #173
      00FF76F8H   LINE      CODE     ---       #176
      00FF76F8H   LINE      CODE     ---       #178
      00FF7704H   LINE      CODE     ---       #180
      00FF770AH   LINE      CODE     ---       #181
      ---         BLOCKEND  ---      ---       LVL=0

      00FF8253H   BLOCK     CODE     ---       LVL=0
      00FF8253H   LINE      CODE     ---       #187
      00FF8255H   LINE      CODE     ---       #189
      00FF8258H   LINE      CODE     ---       #192
      ---         BLOCKEND  ---      ---       LVL=0

      00FF825BH   BLOCK     CODE     ---       LVL=0
      00FF825BH   LINE      CODE     ---       #194
      00FF825DH   LINE      CODE     ---       #196
      00FF8260H   LINE      CODE     ---       #200
      ---         BLOCKEND  ---      ---       LVL=0

      ---         MODULE    ---      ---       main
      00FF51F9H   PUBLIC    CODE     ---       main
      00FF59F8H   PUBLIC    CODE     ---       showoled
      0000067BH   PUBLIC    EDATA    BYTE      oled_flag
      0000067CH   PUBLIC    EDATA    BYTE      cross_flag
      0000067DH   PUBLIC    EDATA    BYTE      servo_flag
      0000067EH   PUBLIC    EDATA    BYTE      motor_flag
      0000067FH   PUBLIC    EDATA    BYTE      cnt_circl
      00000680H   PUBLIC    EDATA    BYTE      tof_flag
      00000681H   PUBLIC    EDATA    BYTE      imu_flag
      00000682H   PUBLIC    EDATA    INT       circle_z
      00000684H   PUBLIC    EDATA    BYTE      circle_finish
      00000685H   PUBLIC    EDATA    BYTE      straight_flag
      00000686H   PUBLIC    EDATA    BYTE      circle_flag
      00000687H   PUBLIC    EDATA    BYTE      circle_return
      000000D0H   SFRSYM    DATA     BYTE      PSW
      0000009DH   SFRSYM    DATA     BYTE      IRCBAND
      00000097H   SFRSYM    DATA     BYTE      AUXR2
      000000EFH   SFRSYM    DATA     BYTE      AUXINTIF
      000000FDH   SFRSYM    DATA     BYTE      S4CON
      000000ACH   SFRSYM    DATA     BYTE      S3CON
      0000009AH   SFRSYM    DATA     BYTE      S2CON
      000000B7H   SFRSYM    DATA     BYTE      IPH
      000000CDH   SFRSYM    DATA     BYTE      SPSTAT
      000000DDH   SFRSYM    DATA     BYTE      T4T3M
      000000C1H   SFRSYM    DATA     BYTE      WDT_CONTR
      000000DFH   SFRSYM    DATA     BYTE      IP3
      000000F4H   SFRSYM    DATA     BYTE      USBCON
      000000B5H   SFRSYM    DATA     BYTE      IP2
      000000FFH   SFRSYM    DATA     BYTE      RSTCFG
      000000F9H   SFRSYM    DATA     BYTE      LINICR
      0000008EH   SFRSYM    DATA     BYTE      AUXR
      000000AFH   SFRSYM    DATA     BYTE      IE2
      000000F8H.7 SFRSYM    DATA     BIT       P77
      000000E8H.4 SFRSYM    DATA     BIT       P64
L251 LINKER/LOCATER V4.66.93.0                                                        07/19/2023  21:09:12  PAGE 95


      000000F8H.1 SFRSYM    DATA     BIT       P71
      000000C8H.2 SFRSYM    DATA     BIT       P52
      00000088H   SFRSYM    DATA     BYTE      TCON
      00000098H   SFRSYM    DATA     BYTE      SCON
      000000F1H   SFRSYM    DATA     BYTE      CANICR
      00000087H   SFRSYM    DATA     BYTE      PCON
      000000BCH   SFRSYM    DATA     BYTE      ADC_CONTR
      000000E7H   SFRSYM    DATA     BYTE      CMPCR2
      000000E6H   SFRSYM    DATA     BYTE      CMPCR1
      000000B8H   SFRSYM    DATA     BYTE      IP
      0000008FH   SFRSYM    DATA     BYTE      INTCLKO
      000000EEH   SFRSYM    DATA     BYTE      IP3H
      000000B6H   SFRSYM    DATA     BYTE      IP2H
      000000A8H   SFRSYM    DATA     BYTE      IE
      000000BBH   SFRSYM    DATA     BYTE      P_SW3
      000000BAH   SFRSYM    DATA     BYTE      P_SW2
      000000A2H   SFRSYM    DATA     BYTE      P_SW1
      000000CEH   SFRSYM    DATA     BYTE      SPCTL
      000000F8H   SFRSYM    DATA     BYTE      P7
      000000E8H   SFRSYM    DATA     BYTE      P6
      000000C8H   SFRSYM    DATA     BYTE      P5
      000000C0H   SFRSYM    DATA     BYTE      P4
      000000B0H   SFRSYM    DATA     BYTE      P3
      000000A0H   SFRSYM    DATA     BYTE      P2
      00000090H   SFRSYM    DATA     BYTE      P1
      00000080H   SFRSYM    DATA     BYTE      P0

      00FF51F9H   BLOCK     CODE     ---       LVL=0
      00FF51F9H   LINE      CODE     ---       #53
      00FF51F9H   LINE      CODE     ---       #57
      00FF51FCH   LINE      CODE     ---       #58
      00FF5203H   LINE      CODE     ---       #69
      00FF5206H   LINE      CODE     ---       #70
      00FF5209H   LINE      CODE     ---       #71
      00FF520EH   LINE      CODE     ---       #72
      00FF5215H   LINE      CODE     ---       #73
      00FF521AH   LINE      CODE     ---       #74
      00FF5221H   LINE      CODE     ---       #75
      00FF522CH   LINE      CODE     ---       #76
      00FF522FH   LINE      CODE     ---       #77
      00FF5232H   LINE      CODE     ---       #78
      00FF5235H   LINE      CODE     ---       #79
      00FF5238H   LINE      CODE     ---       #80
      00FF523BH   LINE      CODE     ---       #81
      00FF5242H   LINE      CODE     ---       #82
      00FF5242H   LINE      CODE     ---       #100
      00FF5245H   LINE      CODE     ---       #101
      00FF524EH   LINE      CODE     ---       #102
      00FF5251H   LINE      CODE     ---       #103
      00FF525AH   LINE      CODE     ---       #105
      00FF525FH   LINE      CODE     ---       #106
      00FF5266H   LINE      CODE     ---       #107
      00FF526DH   LINE      CODE     ---       #108
      00FF527AH   LINE      CODE     ---       #109
      00FF5287H   LINE      CODE     ---       #110
      00FF52A3H   LINE      CODE     ---       #111
      00FF52A3H   LINE      CODE     ---       #112
      00FF52AFH   LINE      CODE     ---       #114
      00FF52B4H   LINE      CODE     ---       #116
      00FF52BDH   LINE      CODE     ---       #118
      00FF52C2H   LINE      CODE     ---       #119
      00FF52C5H   LINE      CODE     ---       #120
      00FF52CCH   LINE      CODE     ---       #122
      00FF52CEH   LINE      CODE     ---       #125
      00FF52E9H   LINE      CODE     ---       #127
L251 LINKER/LOCATER V4.66.93.0                                                        07/19/2023  21:09:12  PAGE 96


      00FF52EFH   LINE      CODE     ---       #128
      00FF52F1H   LINE      CODE     ---       #129
      00FF5303H   LINE      CODE     ---       #131
      00FF5306H   LINE      CODE     ---       #133
      00FF5306H   LINE      CODE     ---       #134
      00FF531EH   LINE      CODE     ---       #136
      00FF531EH   LINE      CODE     ---       #137
      00FF5324H   LINE      CODE     ---       #138
      00FF532BH   LINE      CODE     ---       #139
      00FF5347H   LINE      CODE     ---       #140
      00FF534DH   LINE      CODE     ---       #141
      00FF5354H   LINE      CODE     ---       #143
      00FF5360H   LINE      CODE     ---       #145
      00FF5363H   LINE      CODE     ---       #146
      00FF5375H   LINE      CODE     ---       #147
      00FF5381H   LINE      CODE     ---       #149
      00FF5389H   LINE      CODE     ---       #150
      00FF5389H   LINE      CODE     ---       #151
      00FF53A0H   LINE      CODE     ---       #153
      00FF53A5H   LINE      CODE     ---       #154
      00FF53ABH   LINE      CODE     ---       #156
      00FF53B7H   LINE      CODE     ---       #158
      00FF53C0H   LINE      CODE     ---       #160
      00FF53C6H   LINE      CODE     ---       #161
      00FF53C6H   LINE      CODE     ---       #163
      00FF53C6H   LINE      CODE     ---       #164
      00FF53C8H   LINE      CODE     ---       #165
      00FF53C8H   LINE      CODE     ---       #167
      00FF53CDH   LINE      CODE     ---       #168
      00FF53E9H   LINE      CODE     ---       #169
      00FF53ECH   LINE      CODE     ---       #170
      00FF53F3H   LINE      CODE     ---       #171
      00FF53F5H   LINE      CODE     ---       #172
      00FF53F5H   LINE      CODE     ---       #173
      00FF53F8H   LINE      CODE     ---       #174
      00FF53F8H   LINE      CODE     ---       #175
      00FF53FBH   LINE      CODE     ---       #176
      00FF53FBH   LINE      CODE     ---       #178
      00FF53FBH   LINE      CODE     ---       #179
      00FF5404H   LINE      CODE     ---       #181
      00FF5407H   LINE      CODE     ---       #182
      00FF5407H   LINE      CODE     ---       #183
      00FF5413H   LINE      CODE     ---       #185
      00FF5416H   LINE      CODE     ---       #186
      00FF541DH   LINE      CODE     ---       #187
      00FF542CH   LINE      CODE     ---       #189
      00FF5448H   LINE      CODE     ---       #190
      00FF544BH   LINE      CODE     ---       #191
      00FF544BH   LINE      CODE     ---       #194
      00FF544EH   LINE      CODE     ---       #195
      ---         BLOCKEND  ---      ---       LVL=0

      00FF59F8H   BLOCK     CODE     ---       LVL=0
      00FF59F8H   LINE      CODE     ---       #197
      00FF59F8H   LINE      CODE     ---       #199
      00FF5A07H   LINE      CODE     ---       #200
      00FF5A18H   LINE      CODE     ---       #201
      00FF5A29H   LINE      CODE     ---       #202
      00FF5A3AH   LINE      CODE     ---       #203
      00FF5A4BH   LINE      CODE     ---       #204
      00FF5A5CH   LINE      CODE     ---       #205
      00FF5A6DH   LINE      CODE     ---       #206
      00FF5A7EH   LINE      CODE     ---       #207
      00FF5A8FH   LINE      CODE     ---       #208
      00FF5AA0H   LINE      CODE     ---       #209
L251 LINKER/LOCATER V4.66.93.0                                                        07/19/2023  21:09:12  PAGE 97


      00FF5AB1H   LINE      CODE     ---       #210
      00FF5AC6H   LINE      CODE     ---       #211
      00FF5ADDH   LINE      CODE     ---       #212
      00FF5AF4H   LINE      CODE     ---       #213
      00FF5B0BH   LINE      CODE     ---       #218
      00FF5B1AH   LINE      CODE     ---       #219
      00FF5B36H   LINE      CODE     ---       #220
      00FF5B45H   LINE      CODE     ---       #221
      00FF5B54H   LINE      CODE     ---       #222
      00FF5B64H   LINE      CODE     ---       #223
      00FF5B73H   LINE      CODE     ---       #224
      00FF5B8BH   LINE      CODE     ---       #228
      ---         BLOCKEND  ---      ---       LVL=0

      ---         MODULE    ---      ---       motor
      00FF81D7H   PUBLIC    CODE     ---       ServoInit
      00FF8073H   PUBLIC    CODE     ---       MotorInit
      00FF7FDDH   PUBLIC    CODE     ---       MotorControlL
      00FF8003H   PUBLIC    CODE     ---       MotorControlR
      00FF7DB3H   PUBLIC    CODE     ---       ServoControl
      000009E6H   PUBLIC    EDATA    LONG      Duty
      000009EAH   PUBLIC    EDATA    DWORD     ServoDuty
      000000D0H   SFRSYM    DATA     BYTE      PSW
      0000009DH   SFRSYM    DATA     BYTE      IRCBAND
      00000097H   SFRSYM    DATA     BYTE      AUXR2
      000000EFH   SFRSYM    DATA     BYTE      AUXINTIF
      000000FDH   SFRSYM    DATA     BYTE      S4CON
      000000ACH   SFRSYM    DATA     BYTE      S3CON
      0000009AH   SFRSYM    DATA     BYTE      S2CON
      000000B7H   SFRSYM    DATA     BYTE      IPH
      000000CDH   SFRSYM    DATA     BYTE      SPSTAT
      000000DDH   SFRSYM    DATA     BYTE      T4T3M
      000000C1H   SFRSYM    DATA     BYTE      WDT_CONTR
      000000DFH   SFRSYM    DATA     BYTE      IP3
      000000F4H   SFRSYM    DATA     BYTE      USBCON
      000000B5H   SFRSYM    DATA     BYTE      IP2
      000000FFH   SFRSYM    DATA     BYTE      RSTCFG
      000000F9H   SFRSYM    DATA     BYTE      LINICR
      0000008EH   SFRSYM    DATA     BYTE      AUXR
      000000AFH   SFRSYM    DATA     BYTE      IE2
      00000088H   SFRSYM    DATA     BYTE      TCON
      00000098H   SFRSYM    DATA     BYTE      SCON
      000000F1H   SFRSYM    DATA     BYTE      CANICR
      00000087H   SFRSYM    DATA     BYTE      PCON
      000000BCH   SFRSYM    DATA     BYTE      ADC_CONTR
      000000E7H   SFRSYM    DATA     BYTE      CMPCR2
      000000E6H   SFRSYM    DATA     BYTE      CMPCR1
      000000B8H   SFRSYM    DATA     BYTE      IP
      0000008FH   SFRSYM    DATA     BYTE      INTCLKO
      000000EEH   SFRSYM    DATA     BYTE      IP3H
      000000B6H   SFRSYM    DATA     BYTE      IP2H
      000000A8H   SFRSYM    DATA     BYTE      IE
      000000BBH   SFRSYM    DATA     BYTE      P_SW3
      000000BAH   SFRSYM    DATA     BYTE      P_SW2
      000000A2H   SFRSYM    DATA     BYTE      P_SW1
      000000CEH   SFRSYM    DATA     BYTE      SPCTL
      000000F8H   SFRSYM    DATA     BYTE      P7
      000000E8H   SFRSYM    DATA     BYTE      P6
      000000C8H   SFRSYM    DATA     BYTE      P5
      000000C0H   SFRSYM    DATA     BYTE      P4
      000000B0H   SFRSYM    DATA     BYTE      P3
      000000A0H   SFRSYM    DATA     BYTE      P2
      00000090H   SFRSYM    DATA     BYTE      P1
      00000080H   SFRSYM    DATA     BYTE      P0

L251 LINKER/LOCATER V4.66.93.0                                                        07/19/2023  21:09:12  PAGE 98


      00FF8073H   BLOCK     CODE     ---       LVL=0
      00FF8073H   LINE      CODE     ---       #11
      00FF8073H   LINE      CODE     ---       #13
      00FF8084H   LINE      CODE     ---       #14
      00FF8095H   LINE      CODE     ---       #15
      ---         BLOCKEND  ---      ---       LVL=0

      00FF81D7H   BLOCK     CODE     ---       LVL=0
      00FF81D7H   LINE      CODE     ---       #16
      00FF81D7H   LINE      CODE     ---       #18
      00FF81EAH   LINE      CODE     ---       #19
      ---         BLOCKEND  ---      ---       LVL=0

      00FF8003H   BLOCK     CODE     ---       LVL=0
      00000BD7H   SYMBOL    EDATA    WORD      duty
      00FF8003H   LINE      CODE     ---       #20
      00FF8007H   LINE      CODE     ---       #22
      00FF8013H   LINE      CODE     ---       #24
      00FF801BH   LINE      CODE     ---       #25
      00FF801BH   LINE      CODE     ---       #31
      00FF8028H   LINE      CODE     ---       #33
      ---         BLOCKEND  ---      ---       LVL=0

      00FF7FDDH   BLOCK     CODE     ---       LVL=0
      00000BD9H   SYMBOL    EDATA    WORD      duty
      00FF7FDDH   LINE      CODE     ---       #34
      00FF7FE1H   LINE      CODE     ---       #36
      00FF7FEDH   LINE      CODE     ---       #38
      00FF7FF5H   LINE      CODE     ---       #39
      00FF7FF5H   LINE      CODE     ---       #44
      00FF8002H   LINE      CODE     ---       #45
      ---         BLOCKEND  ---      ---       LVL=0

      00FF7DB3H   BLOCK     CODE     ---       LVL=0
      00000B48H   SYMBOL    EDATA    LONG      duty
      00FF7DB3H   LINE      CODE     ---       #46
      00FF7DB7H   LINE      CODE     ---       #51
      00FF7DBDH   LINE      CODE     ---       #53
      00FF7DC5H   LINE      CODE     ---       #54
      00FF7DC7H   LINE      CODE     ---       #55
      00FF7DD1H   LINE      CODE     ---       #57
      00FF7DD9H   LINE      CODE     ---       #58
      00FF7DD9H   LINE      CODE     ---       #59
      00FF7DE7H   LINE      CODE     ---       #60
      00FF7DF2H   LINE      CODE     ---       #61
      ---         BLOCKEND  ---      ---       LVL=0

      ---         MODULE    ---      ---       My_ADC
      00FF7EDCH   PUBLIC    CODE     ---       AdcRead
      00FF8029H   PUBLIC    CODE     ---       AdcInit
      000009EEH   PUBLIC    EDATA    ---       diangan
      000000D0H   SFRSYM    DATA     BYTE      PSW
      0000009DH   SFRSYM    DATA     BYTE      IRCBAND
      00000097H   SFRSYM    DATA     BYTE      AUXR2
      000000EFH   SFRSYM    DATA     BYTE      AUXINTIF
      000000FDH   SFRSYM    DATA     BYTE      S4CON
      000000ACH   SFRSYM    DATA     BYTE      S3CON
      0000009AH   SFRSYM    DATA     BYTE      S2CON
      000000B7H   SFRSYM    DATA     BYTE      IPH
      000000CDH   SFRSYM    DATA     BYTE      SPSTAT
      000000DDH   SFRSYM    DATA     BYTE      T4T3M
      000000C1H   SFRSYM    DATA     BYTE      WDT_CONTR
      000000DFH   SFRSYM    DATA     BYTE      IP3
      000000F4H   SFRSYM    DATA     BYTE      USBCON
      000000B5H   SFRSYM    DATA     BYTE      IP2
L251 LINKER/LOCATER V4.66.93.0                                                        07/19/2023  21:09:12  PAGE 99


      000000FFH   SFRSYM    DATA     BYTE      RSTCFG
      000000F9H   SFRSYM    DATA     BYTE      LINICR
      0000008EH   SFRSYM    DATA     BYTE      AUXR
      000000AFH   SFRSYM    DATA     BYTE      IE2
      00000088H   SFRSYM    DATA     BYTE      TCON
      00000098H   SFRSYM    DATA     BYTE      SCON
      000000F1H   SFRSYM    DATA     BYTE      CANICR
      00000087H   SFRSYM    DATA     BYTE      PCON
      000000BCH   SFRSYM    DATA     BYTE      ADC_CONTR
      000000E7H   SFRSYM    DATA     BYTE      CMPCR2
      000000E6H   SFRSYM    DATA     BYTE      CMPCR1
      000000B8H   SFRSYM    DATA     BYTE      IP
      0000008FH   SFRSYM    DATA     BYTE      INTCLKO
      000000EEH   SFRSYM    DATA     BYTE      IP3H
      000000B6H   SFRSYM    DATA     BYTE      IP2H
      000000A8H   SFRSYM    DATA     BYTE      IE
      000000BBH   SFRSYM    DATA     BYTE      P_SW3
      000000BAH   SFRSYM    DATA     BYTE      P_SW2
      000000A2H   SFRSYM    DATA     BYTE      P_SW1
      000000CEH   SFRSYM    DATA     BYTE      SPCTL
      000000F8H   SFRSYM    DATA     BYTE      P7
      000000E8H   SFRSYM    DATA     BYTE      P6
      000000C8H   SFRSYM    DATA     BYTE      P5
      000000C0H   SFRSYM    DATA     BYTE      P4
      000000B0H   SFRSYM    DATA     BYTE      P3
      000000A0H   SFRSYM    DATA     BYTE      P2
      00000090H   SFRSYM    DATA     BYTE      P1
      00000080H   SFRSYM    DATA     BYTE      P0

      00FF8029H   BLOCK     CODE     ---       LVL=0
      00FF8029H   LINE      CODE     ---       #3
      00FF8029H   LINE      CODE     ---       #5
      00FF8032H   LINE      CODE     ---       #6
      00FF803BH   LINE      CODE     ---       #7
      00FF8044H   LINE      CODE     ---       #8
      00FF804DH   LINE      CODE     ---       #9
      ---         BLOCKEND  ---      ---       LVL=0

      00FF7EDCH   BLOCK     CODE     ---       LVL=0
      00FF7EDCH   LINE      CODE     ---       #10
      00FF7EDCH   LINE      CODE     ---       #12
      00FF7EE9H   LINE      CODE     ---       #13
      00FF7EF6H   LINE      CODE     ---       #14
      00FF7F03H   LINE      CODE     ---       #15
      00FF7F10H   LINE      CODE     ---       #17
      ---         BLOCKEND  ---      ---       LVL=0

      ---         MODULE    ---      ---       encoder
      00FF7CECH   PUBLIC    CODE     ---       ReadEncoderL
      00FF7C13H   PUBLIC    CODE     ---       ReadEncoderR
      00FF8222H   PUBLIC    CODE     ---       EncoderInitL
      00FF0046H   PUBLIC    CODE     ---       EncoderInitR
      00000B4CH   PUBLIC    EDATA    INT       templ_pluse
      00000B4EH   PUBLIC    EDATA    INT       tempr_pluse
      000000D0H   SFRSYM    DATA     BYTE      PSW
      0000009DH   SFRSYM    DATA     BYTE      IRCBAND
      00000097H   SFRSYM    DATA     BYTE      AUXR2
      000000EFH   SFRSYM    DATA     BYTE      AUXINTIF
      000000FDH   SFRSYM    DATA     BYTE      S4CON
      000000ACH   SFRSYM    DATA     BYTE      S3CON
      0000009AH   SFRSYM    DATA     BYTE      S2CON
      000000B7H   SFRSYM    DATA     BYTE      IPH
      000000CDH   SFRSYM    DATA     BYTE      SPSTAT
      000000DDH   SFRSYM    DATA     BYTE      T4T3M
      000000C1H   SFRSYM    DATA     BYTE      WDT_CONTR
L251 LINKER/LOCATER V4.66.93.0                                                        07/19/2023  21:09:12  PAGE 100


      000000E9H   SFRSYM    DATA     BYTE      WTST
      000000DFH   SFRSYM    DATA     BYTE      IP3
      000000F4H   SFRSYM    DATA     BYTE      USBCON
      000000B5H   SFRSYM    DATA     BYTE      IP2
      000000FFH   SFRSYM    DATA     BYTE      RSTCFG
      000000F9H   SFRSYM    DATA     BYTE      LINICR
      0000008EH   SFRSYM    DATA     BYTE      AUXR
      000000AFH   SFRSYM    DATA     BYTE      IE2
      000000B0H.5 SFRSYM    DATA     BIT       P35
      000000C8H.3 SFRSYM    DATA     BIT       P53
      00000088H   SFRSYM    DATA     BYTE      TCON
      00000098H   SFRSYM    DATA     BYTE      SCON
      000000F1H   SFRSYM    DATA     BYTE      CANICR
      00000087H   SFRSYM    DATA     BYTE      PCON
      000000BCH   SFRSYM    DATA     BYTE      ADC_CONTR
      000000E7H   SFRSYM    DATA     BYTE      CMPCR2
      000000E6H   SFRSYM    DATA     BYTE      CMPCR1
      000000B8H   SFRSYM    DATA     BYTE      IP
      0000008FH   SFRSYM    DATA     BYTE      INTCLKO
      000000EEH   SFRSYM    DATA     BYTE      IP3H
      000000B6H   SFRSYM    DATA     BYTE      IP2H
      000000A8H   SFRSYM    DATA     BYTE      IE
      000000BBH   SFRSYM    DATA     BYTE      P_SW3
      000000BAH   SFRSYM    DATA     BYTE      P_SW2
      000000A2H   SFRSYM    DATA     BYTE      P_SW1
      000000CEH   SFRSYM    DATA     BYTE      SPCTL
      000000F8H   SFRSYM    DATA     BYTE      P7
      000000E8H   SFRSYM    DATA     BYTE      P6
      000000C8H   SFRSYM    DATA     BYTE      P5
      000000C0H   SFRSYM    DATA     BYTE      P4
      000000B0H   SFRSYM    DATA     BYTE      P3
      000000A0H   SFRSYM    DATA     BYTE      P2
      00000090H   SFRSYM    DATA     BYTE      P1
      00000080H   SFRSYM    DATA     BYTE      P0

      00FF7CECH   BLOCK     CODE     ---       LVL=0
      00FF7CECH   LINE      CODE     ---       #13
      00FF7CECH   LINE      CODE     ---       #15
      00FF7CEFH   LINE      CODE     ---       #17
      00FF7CF2H   LINE      CODE     ---       #22
      00FF7CFEH   LINE      CODE     ---       #23
      00FF7D03H   LINE      CODE     ---       #25
      00FF7D06H   LINE      CODE     ---       #27
      00FF7D0FH   LINE      CODE     ---       #31
      00FF7D14H   LINE      CODE     ---       #35
      00FF7D1DH   LINE      CODE     ---       #37
      00FF7D2BH   LINE      CODE     ---       #38
      00FF7D2BH   LINE      CODE     ---       #44
      00FF7D2FH   LINE      CODE     ---       #45
      ---         BLOCKEND  ---      ---       LVL=0

      00FF7C13H   BLOCK     CODE     ---       LVL=0
      00FF7C13H   LINE      CODE     ---       #46
      00FF7C13H   LINE      CODE     ---       #48
      00FF7C16H   LINE      CODE     ---       #50
      00FF7C19H   LINE      CODE     ---       #51
      00FF7C25H   LINE      CODE     ---       #52
      00FF7C2CH   LINE      CODE     ---       #55
      00FF7C37H   LINE      CODE     ---       #57
      00FF7C3EH   LINE      CODE     ---       #61
      00FF7C47H   LINE      CODE     ---       #63
      00FF7C55H   LINE      CODE     ---       #64
      00FF7C55H   LINE      CODE     ---       #69
      00FF7C58H   LINE      CODE     ---       #70
      00FF7C5CH   LINE      CODE     ---       #71
L251 LINKER/LOCATER V4.66.93.0                                                        07/19/2023  21:09:12  PAGE 101


      ---         BLOCKEND  ---      ---       LVL=0

      00FF8222H   BLOCK     CODE     ---       LVL=0
      00FF8222H   LINE      CODE     ---       #72
      00FF8222H   LINE      CODE     ---       #74
      00FF8227H   LINE      CODE     ---       #75
      00FF822AH   LINE      CODE     ---       #76
      ---         BLOCKEND  ---      ---       LVL=0

      00FF0046H   BLOCK     CODE     ---       LVL=0
      00FF0046H   LINE      CODE     ---       #77
      00FF0046H   LINE      CODE     ---       #79
      00FF004DH   LINE      CODE     ---       #80
      00FF0050H   LINE      CODE     ---       #81
      ---         BLOCKEND  ---      ---       LVL=0

      ---         MODULE    ---      ---       control
      00FF6FDAH   PUBLIC    CODE     ---       cross_control
      00FF5838H   PUBLIC    CODE     ---       SpeedComputerL
      00FF5E68H   PUBLIC    CODE     ---       PidControlServo
      00FF705DH   PUBLIC    CODE     ---       ramp_control
      00FF5655H   PUBLIC    CODE     ---       SpeedComputerR
      00FF80F8H   PUBLIC    CODE     ---       fabs
      00FF623FH   PUBLIC    CODE     ---       ComputerADC
      00FF782CH   PUBLIC    CODE     ---       cross_judge
      00FF7434H   PUBLIC    CODE     ---       ramp_judge
      00FF6A80H   PUBLIC    CODE     ---       direction
      00FF73C4H   PUBLIC    CODE     ---       direction_cross
      00FF70E0H   PUBLIC    CODE     ---       circle_control
      00FF7163H   PUBLIC    CODE     ---       direction_cir
      00FF7E6EH   PUBLIC    CODE     ---       circle_judge
      00FF66BAH   PUBLIC    CODE     ---       tof_get
      00FF68B4H   PUBLIC    CODE     ---       PID_motor
      00000008H   PUBLIC    EDATA    FLOAT     servo_kp_ramp
      0000000CH   PUBLIC    EDATA    FLOAT     servo_kd_cir
      00000010H   PUBLIC    EDATA    FLOAT     servo_kd_cro
      00000014H   PUBLIC    EDATA    FLOAT     MyB
      00000018H   PUBLIC    EDATA    WORD      motor_duty_L
      0000001AH   PUBLIC    EDATA    FLOAT     servo_kp_cir
      0000001EH   PUBLIC    EDATA    WORD      motor_duty_R
      00000020H   PUBLIC    EDATA    FLOAT     servo_kp_cro
      00000024H   PUBLIC    EDATA    FLOAT     motor_ki_L
      00000028H   PUBLIC    EDATA    FLOAT     MyP
      0000002CH   PUBLIC    EDATA    FLOAT     LM
      00000030H   PUBLIC    EDATA    FLOAT     motor_ki_R
      00000034H   PUBLIC    EDATA    FLOAT     motor_kp_L
      00000038H   PUBLIC    EDATA    FLOAT     RM
      0000003CH   PUBLIC    EDATA    FLOAT     motor_kp_R
      00000040H   PUBLIC    EDATA    FLOAT     error
      00000044H   PUBLIC    EDATA    BYTE      ramp_flag
      00000045H   PUBLIC    EDATA    FLOAT     AdcNow
      00000049H   PUBLIC    EDATA    ---       servo_error
      00000051H   PUBLIC    EDATA    FLOAT     A
      00000055H   PUBLIC    EDATA    FLOAT     C
      00000059H   PUBLIC    EDATA    INT       servo_duty_delta
      0000005BH   PUBLIC    EDATA    FLOAT     L
      0000005FH   PUBLIC    EDATA    ---       speed_error_L
      00000067H   PUBLIC    EDATA    FLOAT     R
      0000006BH   PUBLIC    EDATA    ---       speed_error_R
      00000073H   PUBLIC    EDATA    WORD      TofNow
      00000075H   PUBLIC    EDATA    FLOAT     servo_kd
      00000079H   PUBLIC    EDATA    WORD      speed_set_L
      0000007BH   PUBLIC    EDATA    FLOAT     servo_kp
      0000007FH   PUBLIC    EDATA    WORD      speed_set_R
      00000081H   PUBLIC    EDATA    FLOAT     servo_kd_ramp
L251 LINKER/LOCATER V4.66.93.0                                                        07/19/2023  21:09:12  PAGE 102


      00000085H   PUBLIC    EDATA    FLOAT     SpeedNowL
      00000089H   PUBLIC    EDATA    FLOAT     SpeedNowR
      00FF8580H   PUBLIC    HCONST   ---       sqrtTable
      00000836H   PUBLIC    EDATA    BYTE      ?PID_motor?BYTE
      000000D0H   SFRSYM    DATA     BYTE      PSW
      0000009DH   SFRSYM    DATA     BYTE      IRCBAND
      00000097H   SFRSYM    DATA     BYTE      AUXR2
      000000EFH   SFRSYM    DATA     BYTE      AUXINTIF
      000000FDH   SFRSYM    DATA     BYTE      S4CON
      000000ACH   SFRSYM    DATA     BYTE      S3CON
      0000009AH   SFRSYM    DATA     BYTE      S2CON
      000000B7H   SFRSYM    DATA     BYTE      IPH
      000000CDH   SFRSYM    DATA     BYTE      SPSTAT
      000000DDH   SFRSYM    DATA     BYTE      T4T3M
      000000C1H   SFRSYM    DATA     BYTE      WDT_CONTR
      000000DFH   SFRSYM    DATA     BYTE      IP3
      000000F4H   SFRSYM    DATA     BYTE      USBCON
      000000B5H   SFRSYM    DATA     BYTE      IP2
      000000FFH   SFRSYM    DATA     BYTE      RSTCFG
      000000F9H   SFRSYM    DATA     BYTE      LINICR
      0000008EH   SFRSYM    DATA     BYTE      AUXR
      000000AFH   SFRSYM    DATA     BYTE      IE2
      00000088H   SFRSYM    DATA     BYTE      TCON
      00000098H   SFRSYM    DATA     BYTE      SCON
      000000F1H   SFRSYM    DATA     BYTE      CANICR
      00000087H   SFRSYM    DATA     BYTE      PCON
      000000BCH   SFRSYM    DATA     BYTE      ADC_CONTR
      000000E7H   SFRSYM    DATA     BYTE      CMPCR2
      000000E6H   SFRSYM    DATA     BYTE      CMPCR1
      000000B8H   SFRSYM    DATA     BYTE      IP
      0000008FH   SFRSYM    DATA     BYTE      INTCLKO
      000000EEH   SFRSYM    DATA     BYTE      IP3H
      000000B6H   SFRSYM    DATA     BYTE      IP2H
      000000A8H   SFRSYM    DATA     BYTE      IE
      000000BBH   SFRSYM    DATA     BYTE      P_SW3
      000000BAH   SFRSYM    DATA     BYTE      P_SW2
      000000A2H   SFRSYM    DATA     BYTE      P_SW1
      000000CEH   SFRSYM    DATA     BYTE      SPCTL
      000000F8H   SFRSYM    DATA     BYTE      P7
      000000E8H   SFRSYM    DATA     BYTE      P6
      000000C8H   SFRSYM    DATA     BYTE      P5
      000000C0H   SFRSYM    DATA     BYTE      P4
      000000B0H   SFRSYM    DATA     BYTE      P3
      000000A0H   SFRSYM    DATA     BYTE      P2
      00000090H   SFRSYM    DATA     BYTE      P1
      00000080H   SFRSYM    DATA     BYTE      P0
      00000BEEH   SYMBOL    EDATA    CHAR      x

      00FF80F8H   BLOCK     CODE     ---       LVL=0
      00000B50H   SYMBOL    EDATA    FLOAT     x
      00FF80F8H   LINE      CODE     ---       #51
      00FF80FCH   LINE      CODE     ---       #53
      00FF8107H   LINE      CODE     ---       #55
      00FF8112H   LINE      CODE     ---       #56
      00FF8112H   LINE      CODE     ---       #57
      00FF8116H   LINE      CODE     ---       #58
      ---         BLOCKEND  ---      ---       LVL=0

      00FF5838H   BLOCK     CODE     ---       LVL=0
      00000933H   SYMBOL    EDATA    LONG      EncodeNow
      00000937H   SYMBOL    EDATA    BYTE      isrms
      00FF5840H   BLOCK     CODE     NEAR LAB  LVL=1
      00000938H   SYMBOL    EDATA    BYTE      i
      00000939H   SYMBOL    EDATA    BYTE      j
      0000093AH   SYMBOL    EDATA    INT       templ
L251 LINKER/LOCATER V4.66.93.0                                                        07/19/2023  21:09:12  PAGE 103


      0000008DH   SYMBOL    EDATA    BYTE      SpCount
      0000008EH   SYMBOL    EDATA    BYTE      k
      0000008FH   SYMBOL    EDATA    ---       SpeedArryL
      ---         BLOCKEND  ---      ---       LVL=1
      00FF5838H   LINE      CODE     ---       #59
      00FF5840H   LINE      CODE     ---       #60
      00FF5840H   LINE      CODE     ---       #61
      00FF584AH   LINE      CODE     ---       #62
      00FF5850H   LINE      CODE     ---       #65
      00FF585FH   LINE      CODE     ---       #68
      00FF588AH   LINE      CODE     ---       #69
      00FF5896H   LINE      CODE     ---       #71
      00FF589FH   LINE      CODE     ---       #73
      00FF58A7H   LINE      CODE     ---       #75
      00FF58CFH   LINE      CODE     ---       #77
      00FF58E5H   LINE      CODE     ---       #78
      00FF5909H   LINE      CODE     ---       #79
      00FF591FH   LINE      CODE     ---       #81
      00FF5945H   LINE      CODE     ---       #84
      00FF595EH   LINE      CODE     ---       #85
      00FF5964H   LINE      CODE     ---       #86
      00FF596CH   LINE      CODE     ---       #88
      00FF5988H   LINE      CODE     ---       #89
      00FF599FH   LINE      CODE     ---       #90
      00FF59AEH   LINE      CODE     ---       #95
      00FF59E0H   LINE      CODE     ---       #96
      00FF59E5H   LINE      CODE     ---       #97
      00FF59E5H   LINE      CODE     ---       #98
      00FF59EAH   LINE      CODE     ---       #99
      00FF59EAH   LINE      CODE     ---       #100
      00FF59F7H   LINE      CODE     ---       #101
      ---         BLOCKEND  ---      ---       LVL=0

      00FF5655H   BLOCK     CODE     ---       LVL=0
      0000093CH   SYMBOL    EDATA    LONG      EncodeNow
      00000940H   SYMBOL    EDATA    BYTE      isrms
      00FF565DH   BLOCK     CODE     NEAR LAB  LVL=1
      00000941H   SYMBOL    EDATA    BYTE      i
      00000942H   SYMBOL    EDATA    BYTE      j
      00000943H   SYMBOL    EDATA    INT       tempr
      000000A3H   SYMBOL    EDATA    BYTE      SpCount
      000000A4H   SYMBOL    EDATA    BYTE      k
      000000A5H   SYMBOL    EDATA    ---       SpeedArryR
      ---         BLOCKEND  ---      ---       LVL=1
      00FF5655H   LINE      CODE     ---       #103
      00FF565DH   LINE      CODE     ---       #104
      00FF565DH   LINE      CODE     ---       #106
      00FF5667H   LINE      CODE     ---       #107
      00FF566DH   LINE      CODE     ---       #111
      00FF567CH   LINE      CODE     ---       #114
      00FF56A7H   LINE      CODE     ---       #115
      00FF56CAH   LINE      CODE     ---       #116
      00FF56D6H   LINE      CODE     ---       #118
      00FF56DFH   LINE      CODE     ---       #120
      00FF56E7H   LINE      CODE     ---       #122
      00FF570FH   LINE      CODE     ---       #124
      00FF5725H   LINE      CODE     ---       #125
      00FF5749H   LINE      CODE     ---       #126
      00FF575FH   LINE      CODE     ---       #128
      00FF5785H   LINE      CODE     ---       #131
      00FF579EH   LINE      CODE     ---       #132
      00FF57A4H   LINE      CODE     ---       #133
      00FF57ACH   LINE      CODE     ---       #135
      00FF57C8H   LINE      CODE     ---       #136
      00FF57DFH   LINE      CODE     ---       #137
L251 LINKER/LOCATER V4.66.93.0                                                        07/19/2023  21:09:12  PAGE 104


      00FF57EEH   LINE      CODE     ---       #142
      00FF5820H   LINE      CODE     ---       #143
      00FF5825H   LINE      CODE     ---       #144
      00FF5825H   LINE      CODE     ---       #145
      00FF582AH   LINE      CODE     ---       #146
      00FF582AH   LINE      CODE     ---       #147
      00FF5837H   LINE      CODE     ---       #148
      ---         BLOCKEND  ---      ---       LVL=0

      00FF6A80H   BLOCK     CODE     ---       LVL=0
      00FF6A80H   LINE      CODE     ---       #149
      00FF6A80H   LINE      CODE     ---       #152
      00FF6A8AH   LINE      CODE     ---       #153
      00FF6A94H   LINE      CODE     ---       #154
      00FF6A9EH   LINE      CODE     ---       #156
      00FF6AA8H   LINE      CODE     ---       #157
      00FF6AABH   LINE      CODE     ---       #158
      00FF6AB8H   LINE      CODE     ---       #160
      00FF6AC5H   LINE      CODE     ---       #161
      00FF6AD2H   LINE      CODE     ---       #162
      00FF6ADFH   LINE      CODE     ---       #168
      00FF6B52H   LINE      CODE     ---       #171
      00FF6B52H   LINE      CODE     ---       #172
      ---         BLOCKEND  ---      ---       LVL=0

      00FF7163H   BLOCK     CODE     ---       LVL=0
      00FF7163H   LINE      CODE     ---       #173
      00FF7163H   LINE      CODE     ---       #175
      00FF716DH   LINE      CODE     ---       #176
      00FF7177H   LINE      CODE     ---       #177
      00FF7181H   LINE      CODE     ---       #178
      00FF718BH   LINE      CODE     ---       #179
      00FF718EH   LINE      CODE     ---       #180
      00FF719BH   LINE      CODE     ---       #181
      00FF71A8H   LINE      CODE     ---       #184
      00FF71E2H   LINE      CODE     ---       #187
      00FF71E2H   LINE      CODE     ---       #188
      ---         BLOCKEND  ---      ---       LVL=0

      00FF73C4H   BLOCK     CODE     ---       LVL=0
      00FF73C4H   LINE      CODE     ---       #190
      00FF73C4H   LINE      CODE     ---       #192
      00FF73CEH   LINE      CODE     ---       #193
      00FF73D8H   LINE      CODE     ---       #194
      00FF73E2H   LINE      CODE     ---       #195
      00FF73ECH   LINE      CODE     ---       #196
      00FF73EFH   LINE      CODE     ---       #197
      00FF73FCH   LINE      CODE     ---       #198
      00FF7409H   LINE      CODE     ---       #199
      00FF7433H   LINE      CODE     ---       #201
      00FF7433H   LINE      CODE     ---       #202
      ---         BLOCKEND  ---      ---       LVL=0

      00FF623FH   BLOCK     CODE     ---       LVL=0
      00000790H   SYMBOL    EDATA    FLOAT     error
      00000794H   SYMBOL    EDATA    BYTE      isrms
      00FF6247H   BLOCK     CODE     NEAR LAB  LVL=1
      00000795H   SYMBOL    EDATA    BYTE      i
      00000796H   SYMBOL    EDATA    INT       tempadc
      000000B9H   SYMBOL    EDATA    BYTE      SpCount
      000000BAH   SYMBOL    EDATA    BYTE      k
      00000798H   SYMBOL    EDATA    INT       min
      0000079AH   SYMBOL    EDATA    INT       max
      000000BBH   SYMBOL    EDATA    ---       AdcArry
      ---         BLOCKEND  ---      ---       LVL=1
L251 LINKER/LOCATER V4.66.93.0                                                        07/19/2023  21:09:12  PAGE 105


      00FF623FH   LINE      CODE     ---       #203
      00FF6247H   LINE      CODE     ---       #204
      00FF6247H   LINE      CODE     ---       #205
      00FF624CH   LINE      CODE     ---       #206
      00FF6252H   LINE      CODE     ---       #208
      00FF6258H   LINE      CODE     ---       #209
      00FF625EH   LINE      CODE     ---       #211
      00FF626DH   LINE      CODE     ---       #213
      00FF6293H   LINE      CODE     ---       #214
      00FF629FH   LINE      CODE     ---       #216
      00FF62A7H   LINE      CODE     ---       #218
      00FF62C1H   LINE      CODE     ---       #220
      00FF62D7H   LINE      CODE     ---       #221
      00FF62D7H   LINE      CODE     ---       #222
      00FF62F1H   LINE      CODE     ---       #224
      00FF6307H   LINE      CODE     ---       #225
      00FF6307H   LINE      CODE     ---       #226
      00FF6323H   LINE      CODE     ---       #228
      00FF633DH   LINE      CODE     ---       #229
      00FF6351H   LINE      CODE     ---       #230
      00FF6363H   LINE      CODE     ---       #231
      00FF6363H   LINE      CODE     ---       #232
      00FF6368H   LINE      CODE     ---       #233
      00FF6368H   LINE      CODE     ---       #234
      00FF6375H   LINE      CODE     ---       #235
      ---         BLOCKEND  ---      ---       LVL=0
      00000B54H   SYMBOL    EDATA    LONG      error

      00FF5E68H   BLOCK     CODE     ---       LVL=0
      00FF5E68H   LINE      CODE     ---       #247
      00FF5E68H   LINE      CODE     ---       #249
      00FF5E70H   LINE      CODE     ---       #257
      00FF5E82H   LINE      CODE     ---       #259
      00FF5E8CH   LINE      CODE     ---       #260
      00FF5E96H   LINE      CODE     ---       #261
      00FF5E99H   LINE      CODE     ---       #262
      00FF5EBDH   LINE      CODE     ---       #264
      00FF5ED1H   LINE      CODE     ---       #265
      00FF5EDBH   LINE      CODE     ---       #266
      00FF5EDDH   LINE      CODE     ---       #267
      00FF5F01H   LINE      CODE     ---       #269
      00FF5F15H   LINE      CODE     ---       #270
      00FF5F1FH   LINE      CODE     ---       #271
      00FF5F21H   LINE      CODE     ---       #272
      00FF5F33H   LINE      CODE     ---       #274
      00FF5F3DH   LINE      CODE     ---       #275
      00FF5F47H   LINE      CODE     ---       #276
      00FF5F47H   LINE      CODE     ---       #277
      00FF5F4FH   LINE      CODE     ---       #278
      00FF5F5EH   LINE      CODE     ---       #280
      00FF5F68H   LINE      CODE     ---       #282
      00FF5F6AH   LINE      CODE     ---       #283
      00FF5F79H   LINE      CODE     ---       #286
      00FF5F83H   LINE      CODE     ---       #287
      00FF5F83H   LINE      CODE     ---       #288
      00FF5FAEH   LINE      CODE     ---       #290
      00FF5FB6H   LINE      CODE     ---       #291
      00FF5FC1H   LINE      CODE     ---       #292
      ---         BLOCKEND  ---      ---       LVL=0

      00FF68B4H   BLOCK     CODE     ---       LVL=0
      00000836H   SYMBOL    EDATA    WORD      speed_set
      00000838H   SYMBOL    EDATA    FLOAT     speed_now_L
      0000083CH   SYMBOL    EDATA    FLOAT     speed_now_R
      00FF68B4H   LINE      CODE     ---       #304
L251 LINKER/LOCATER V4.66.93.0                                                        07/19/2023  21:09:12  PAGE 106


      00FF68BCH   LINE      CODE     ---       #313
      00FF68D2H   LINE      CODE     ---       #314
      00FF68E8H   LINE      CODE     ---       #315
      00FF68FBH   LINE      CODE     ---       #316
      00FF690EH   LINE      CODE     ---       #317
      00FF6945H   LINE      CODE     ---       #318
      00FF697CH   LINE      CODE     ---       #319
      00FF6984H   LINE      CODE     ---       #320
      00FF698CH   LINE      CODE     ---       #321
      00FF6993H   LINE      CODE     ---       #322
      00FF699AH   LINE      CODE     ---       #323
      ---         BLOCKEND  ---      ---       LVL=0

      00FF7E6EH   BLOCK     CODE     ---       LVL=0
      00000BEFH   SYMBOL    EDATA    BYTE      circle_Flag
      00FF7E6EH   LINE      CODE     ---       #336
      00FF7E6EH   LINE      CODE     ---       #337
      00FF7E6EH   LINE      CODE     ---       #338
      00FF7E73H   LINE      CODE     ---       #339
      00FF7E9AH   LINE      CODE     ---       #341
      00FF7EA0H   LINE      CODE     ---       #343
      00FF7EA0H   LINE      CODE     ---       #352
      00FF7EA6H   LINE      CODE     ---       #354
      ---         BLOCKEND  ---      ---       LVL=0

      00FF70E0H   BLOCK     CODE     ---       LVL=0
      00FF70E0H   LINE      CODE     ---       #358
      00FF70E0H   LINE      CODE     ---       #361
      00FF70E8H   LINE      CODE     ---       #362
      00FF70F0H   LINE      CODE     ---       #363
      00FF70FFH   LINE      CODE     ---       #365
      00FF7109H   LINE      CODE     ---       #367
      00FF710BH   LINE      CODE     ---       #368
      00FF711AH   LINE      CODE     ---       #371
      00FF7124H   LINE      CODE     ---       #372
      00FF7124H   LINE      CODE     ---       #373
      00FF714FH   LINE      CODE     ---       #375
      00FF7157H   LINE      CODE     ---       #376
      00FF7162H   LINE      CODE     ---       #377
      ---         BLOCKEND  ---      ---       LVL=0

      00FF782CH   BLOCK     CODE     ---       LVL=0
      00FF782CH   LINE      CODE     ---       #378
      00FF782CH   LINE      CODE     ---       #380
      00FF787EH   LINE      CODE     ---       #383
      00FF7884H   LINE      CODE     ---       #384
      00FF7884H   LINE      CODE     ---       #387
      00FF7886H   LINE      CODE     ---       #388
      00FF7886H   LINE      CODE     ---       #389
      ---         BLOCKEND  ---      ---       LVL=0

      00FF6FDAH   BLOCK     CODE     ---       LVL=0
      00FF6FDAH   LINE      CODE     ---       #393
      00FF6FDAH   LINE      CODE     ---       #395
      00FF6FE2H   LINE      CODE     ---       #396
      00FF6FEAH   LINE      CODE     ---       #397
      00FF6FF9H   LINE      CODE     ---       #399
      00FF7003H   LINE      CODE     ---       #401
      00FF7005H   LINE      CODE     ---       #402
      00FF7014H   LINE      CODE     ---       #405
      00FF701EH   LINE      CODE     ---       #406
      00FF701EH   LINE      CODE     ---       #407
      00FF7049H   LINE      CODE     ---       #408
      00FF7051H   LINE      CODE     ---       #409
      00FF705CH   LINE      CODE     ---       #410
L251 LINKER/LOCATER V4.66.93.0                                                        07/19/2023  21:09:12  PAGE 107


      ---         BLOCKEND  ---      ---       LVL=0

      00FF66BAH   BLOCK     CODE     ---       LVL=0
      00000945H   SYMBOL    EDATA    WORD      dl1a_distance_mm
      00FF66BEH   BLOCK     CODE     NEAR LAB  LVL=1
      00000947H   SYMBOL    EDATA    BYTE      i
      00000948H   SYMBOL    EDATA    WORD      temptof
      000000CFH   SYMBOL    EDATA    BYTE      SpCount
      000000D0H   SYMBOL    EDATA    BYTE      k
      0000094AH   SYMBOL    EDATA    WORD      min
      0000094CH   SYMBOL    EDATA    WORD      max
      000000D1H   SYMBOL    EDATA    ---       TofArry
      ---         BLOCKEND  ---      ---       LVL=1
      00FF66BAH   LINE      CODE     ---       #413
      00FF66BEH   LINE      CODE     ---       #414
      00FF66BEH   LINE      CODE     ---       #415
      00FF66C3H   LINE      CODE     ---       #416
      00FF66C9H   LINE      CODE     ---       #418
      00FF66CFH   LINE      CODE     ---       #419
      00FF66D5H   LINE      CODE     ---       #421
      00FF66F6H   LINE      CODE     ---       #422
      00FF6702H   LINE      CODE     ---       #424
      00FF670AH   LINE      CODE     ---       #426
      00FF6724H   LINE      CODE     ---       #428
      00FF673AH   LINE      CODE     ---       #429
      00FF673AH   LINE      CODE     ---       #430
      00FF6754H   LINE      CODE     ---       #432
      00FF676AH   LINE      CODE     ---       #433
      00FF676AH   LINE      CODE     ---       #434
      00FF6786H   LINE      CODE     ---       #436
      00FF67A0H   LINE      CODE     ---       #437
      00FF67B4H   LINE      CODE     ---       #438
      00FF67BEH   LINE      CODE     ---       #439
      ---         BLOCKEND  ---      ---       LVL=0

      00FF7434H   BLOCK     CODE     ---       LVL=0
      00000BDBH   SYMBOL    EDATA    INT       dl1a_distance_mm
      00FF7434H   LINE      CODE     ---       #442
      00FF7438H   LINE      CODE     ---       #445
      00FF748FH   LINE      CODE     ---       #447
      00FF7495H   LINE      CODE     ---       #449
      00FF7497H   LINE      CODE     ---       #452
      00FF749CH   LINE      CODE     ---       #453
      00FF749CH   LINE      CODE     ---       #454
      00FF74A0H   LINE      CODE     ---       #456
      ---         BLOCKEND  ---      ---       LVL=0

      00FF705DH   BLOCK     CODE     ---       LVL=0
      00FF705DH   LINE      CODE     ---       #460
      00FF705DH   LINE      CODE     ---       #462
      00FF7065H   LINE      CODE     ---       #463
      00FF706DH   LINE      CODE     ---       #464
      00FF707CH   LINE      CODE     ---       #466
      00FF7086H   LINE      CODE     ---       #468
      00FF7088H   LINE      CODE     ---       #469
      00FF7097H   LINE      CODE     ---       #472
      00FF70A1H   LINE      CODE     ---       #473
      00FF70A1H   LINE      CODE     ---       #474
      00FF70CCH   LINE      CODE     ---       #476
      00FF70D4H   LINE      CODE     ---       #477
      00FF70DFH   LINE      CODE     ---       #478
      ---         BLOCKEND  ---      ---       LVL=0

      ---         MODULE    ---      ---       tof
      000000D0H   SFRSYM    DATA     BYTE      PSW
L251 LINKER/LOCATER V4.66.93.0                                                        07/19/2023  21:09:12  PAGE 108


      0000009DH   SFRSYM    DATA     BYTE      IRCBAND
      00000097H   SFRSYM    DATA     BYTE      AUXR2
      000000EFH   SFRSYM    DATA     BYTE      AUXINTIF
      000000FDH   SFRSYM    DATA     BYTE      S4CON
      000000ACH   SFRSYM    DATA     BYTE      S3CON
      0000009AH   SFRSYM    DATA     BYTE      S2CON
      000000B7H   SFRSYM    DATA     BYTE      IPH
      000000CDH   SFRSYM    DATA     BYTE      SPSTAT
      000000DDH   SFRSYM    DATA     BYTE      T4T3M
      000000C1H   SFRSYM    DATA     BYTE      WDT_CONTR
      000000DFH   SFRSYM    DATA     BYTE      IP3
      000000F4H   SFRSYM    DATA     BYTE      USBCON
      000000B5H   SFRSYM    DATA     BYTE      IP2
      000000FFH   SFRSYM    DATA     BYTE      RSTCFG
      000000F9H   SFRSYM    DATA     BYTE      LINICR
      0000008EH   SFRSYM    DATA     BYTE      AUXR
      000000AFH   SFRSYM    DATA     BYTE      IE2
      000000C8H.2 SFRSYM    DATA     BIT       P52
      00000088H   SFRSYM    DATA     BYTE      TCON
      00000098H   SFRSYM    DATA     BYTE      SCON
      000000F1H   SFRSYM    DATA     BYTE      CANICR
      00000087H   SFRSYM    DATA     BYTE      PCON
      000000BCH   SFRSYM    DATA     BYTE      ADC_CONTR
      000000E7H   SFRSYM    DATA     BYTE      CMPCR2
      000000E6H   SFRSYM    DATA     BYTE      CMPCR1
      000000B8H   SFRSYM    DATA     BYTE      IP
      0000008FH   SFRSYM    DATA     BYTE      INTCLKO
      000000EEH   SFRSYM    DATA     BYTE      IP3H
      000000B6H   SFRSYM    DATA     BYTE      IP2H
      000000A8H   SFRSYM    DATA     BYTE      IE
      000000BBH   SFRSYM    DATA     BYTE      P_SW3
      000000BAH   SFRSYM    DATA     BYTE      P_SW2
      000000A2H   SFRSYM    DATA     BYTE      P_SW1
      000000CEH   SFRSYM    DATA     BYTE      SPCTL
      000000F8H   SFRSYM    DATA     BYTE      P7
      000000E8H   SFRSYM    DATA     BYTE      P6
      000000C8H   SFRSYM    DATA     BYTE      P5
      000000C0H   SFRSYM    DATA     BYTE      P4
      000000B0H   SFRSYM    DATA     BYTE      P3
      000000A0H   SFRSYM    DATA     BYTE      P2
      00000090H   SFRSYM    DATA     BYTE      P1
      00000080H   SFRSYM    DATA     BYTE      P0

      ---         MODULE    ---      ---       imu660
      000000D0H   SFRSYM    DATA     BYTE      PSW
      0000009DH   SFRSYM    DATA     BYTE      IRCBAND
      00000097H   SFRSYM    DATA     BYTE      AUXR2
      000000EFH   SFRSYM    DATA     BYTE      AUXINTIF
      000000FDH   SFRSYM    DATA     BYTE      S4CON
      000000ACH   SFRSYM    DATA     BYTE      S3CON
      0000009AH   SFRSYM    DATA     BYTE      S2CON
      000000B7H   SFRSYM    DATA     BYTE      IPH
      000000CDH   SFRSYM    DATA     BYTE      SPSTAT
      000000DDH   SFRSYM    DATA     BYTE      T4T3M
      000000C1H   SFRSYM    DATA     BYTE      WDT_CONTR
      000000DFH   SFRSYM    DATA     BYTE      IP3
      000000F4H   SFRSYM    DATA     BYTE      USBCON
      000000B5H   SFRSYM    DATA     BYTE      IP2
      000000FFH   SFRSYM    DATA     BYTE      RSTCFG
      000000F9H   SFRSYM    DATA     BYTE      LINICR
      0000008EH   SFRSYM    DATA     BYTE      AUXR
      000000AFH   SFRSYM    DATA     BYTE      IE2
      000000C8H.2 SFRSYM    DATA     BIT       P52
      00000088H   SFRSYM    DATA     BYTE      TCON
      00000098H   SFRSYM    DATA     BYTE      SCON
L251 LINKER/LOCATER V4.66.93.0                                                        07/19/2023  21:09:12  PAGE 109


      000000F1H   SFRSYM    DATA     BYTE      CANICR
      00000087H   SFRSYM    DATA     BYTE      PCON
      000000BCH   SFRSYM    DATA     BYTE      ADC_CONTR
      000000E7H   SFRSYM    DATA     BYTE      CMPCR2
      000000E6H   SFRSYM    DATA     BYTE      CMPCR1
      000000B8H   SFRSYM    DATA     BYTE      IP
      0000008FH   SFRSYM    DATA     BYTE      INTCLKO
      000000EEH   SFRSYM    DATA     BYTE      IP3H
      000000B6H   SFRSYM    DATA     BYTE      IP2H
      000000A8H   SFRSYM    DATA     BYTE      IE
      000000BBH   SFRSYM    DATA     BYTE      P_SW3
      000000BAH   SFRSYM    DATA     BYTE      P_SW2
      000000A2H   SFRSYM    DATA     BYTE      P_SW1
      000000CEH   SFRSYM    DATA     BYTE      SPCTL
      000000F8H   SFRSYM    DATA     BYTE      P7
      000000E8H   SFRSYM    DATA     BYTE      P6
      000000C8H   SFRSYM    DATA     BYTE      P5
      000000C0H   SFRSYM    DATA     BYTE      P4
      000000B0H   SFRSYM    DATA     BYTE      P3
      000000A0H   SFRSYM    DATA     BYTE      P2
      00000090H   SFRSYM    DATA     BYTE      P1
      00000080H   SFRSYM    DATA     BYTE      P0

      ---         MODULE    ---      ---       SEEKFREE_CONFIG
      00FF00A6H   PUBLIC    CODE     ---       imu660ra_config_file

      ---         MODULE    ---      ---       ?C?FPADD
      00FF2EB4H   PUBLIC    CODE     ---       ?C?FPADD
      00FF2EB1H   PUBLIC    CODE     ---       ?C?FPSUB

      ---         MODULE    ---      ---       ?C?FPMUL
      00FF2F6CH   PUBLIC    CODE     ---       ?C?FPMUL

      ---         MODULE    ---      ---       ?C?FPDIV
      00FF300CH   PUBLIC    CODE     ---       ?C?FPDIV

      ---         MODULE    ---      ---       ?C?FPCMP
      00FF308FH   PUBLIC    CODE     ---       ?C?FPCMP
      00FF308DH   PUBLIC    CODE     ---       ?C?FPCMP3

      ---         MODULE    ---      ---       ?C?FPNEG
      00FF30D3H   PUBLIC    CODE     ---       ?C?FPNEG

      ---         MODULE    ---      ---       ?C?FCAST
      00FF30EBH   PUBLIC    CODE     NEAR LAB  ?C?FCASTC
      00FF30E6H   PUBLIC    CODE     NEAR LAB  ?C?FCASTI
      00FF30E1H   PUBLIC    CODE     NEAR LAB  ?C?FCASTL

      ---         MODULE    ---      ---       ?C?CASTF
      00FF311EH   PUBLIC    CODE     NEAR LAB  ?C?CASTF

      ---         MODULE    ---      ---       PRINTF
      00FF315BH   PUBLIC    CODE     NEAR LAB  PRINTF

      ---         MODULE    ---      ---       ?C?FPGETOPN
      00FF3187H   PUBLIC    CODE     ---       ?C?FPGETOPN2
      00FF31C4H   PUBLIC    CODE     ---       ?C?FPNANRESULT
      00FF31CCH   PUBLIC    CODE     ---       ?C?FPOVERFLOW
      00FF31A0H   PUBLIC    CODE     ---       ?C?FPRESULT
      00FF31B6H   PUBLIC    CODE     ---       ?C?FPRESULT2
      00FF31C9H   PUBLIC    CODE     ---       ?C?FPUNDERFLOW

      ---         MODULE    ---      ---       ?C?PRNFMT
      00FF3205H   PUBLIC    CODE     ---       ?C?PRNFMT

L251 LINKER/LOCATER V4.66.93.0                                                        07/19/2023  21:09:12  PAGE 110


      ---         MODULE    ---      ---       ?C?FPCONVERT
      00FF3622H   PUBLIC    CODE     ---       ?C?FPCONVERT
      00FF36DAH   PUBLIC    CODE     ---       ?C?FPROUND

      ---         MODULE    ---      ---       ?C?FTNPWR
      00FF374DH   PUBLIC    CODE     ---       ?C?FTNPWR

      ---         MODULE    ---      ---       ?C_START
      00FF0000H   PUBLIC    CODE     ---       ?C?STARTUP
      00FF0000H   PUBLIC    CODE     ---       ?C_STARTUP

      ---         MODULE    ---      ---       ?C?INITEDATA
      00FF7E06H   PUBLIC    CODE     ---       ?C?INITEDATA

      ---         MODULE    ---      ---       ?C?SIDIV
      00FF3784H   PUBLIC    CODE     ---       ?C?SIDIV

      ---         MODULE    ---      ---       ?C?LMUL
      00FF37B6H   PUBLIC    CODE     ---       ?C?LMUL

      ---         MODULE    ---      ---       ?C?LIMUL
      00FF37C7H   PUBLIC    CODE     ---       ?C?LIMUL

      ---         MODULE    ---      ---       ?C?ULDIV
      00FF37D2H   PUBLIC    CODE     NEAR LAB  ?C?ULDIV
      00FF37D0H   PUBLIC    CODE     NEAR LAB  ?C?ULIDIV

      ---         MODULE    ---      ---       ?C?SLDIV
      00FF3823H   PUBLIC    CODE     NEAR LAB  ?C?SLDIV

      ---         MODULE    ---      ---       memcpy
      00FF804EH   PUBLIC    CODE     ---       memcpy?_

      ---         MODULE    ---      ---       memset

      ---         MODULE    ---      ---       ?C?INITEDATA_END
      00FF8430H   PUBLIC    HCONST   WORD      ?C?INITEDATA_END

Program Size: data=8.0 edata+hdata=3304 xdata=0 const=896 code=33331
L251 RUN COMPLETE.  0 WARNING(S),  0 ERROR(S)
